ARM GAS  C:\Users\afne7\AppData\Local\Temp\ccb9AljK.s 			page 1


   1              		.syntax unified
   2              		.cpu cortex-m3
   3              		.fpu softvfp
   4              		.eabi_attribute 20, 1
   5              		.eabi_attribute 21, 1
   6              		.eabi_attribute 23, 3
   7              		.eabi_attribute 24, 1
   8              		.eabi_attribute 25, 1
   9              		.eabi_attribute 26, 1
  10              		.eabi_attribute 30, 1
  11              		.eabi_attribute 34, 1
  12              		.eabi_attribute 18, 4
  13              		.thumb
  14              		.syntax unified
  15              		.file	"main.c"
  16              		.text
  17              	.Ltext0:
  18              		.cfi_sections	.debug_frame
  19              		.section	.text.window_1_callback,"ax",%progbits
  20              		.align	2
  21              		.global	window_1_callback
  22              		.thumb
  23              		.thumb_func
  24              		.type	window_1_callback, %function
  25              	window_1_callback:
  26              	.LFB65:
  27              		.file 1 "main.c"
   1:main.c        **** /* ========================================
   2:main.c        ****  *
   3:main.c        ****  * Copyright ANDRES F. NAVAS, 2018
   4:main.c        ****  * All Rights Reserved
   5:main.c        ****  *
   6:main.c        ****  * CONFIDENTIAL AND PROPRIETARY INFORMATION
   7:main.c        ****  * WHICH IS THE PROPERTY OF ANDRES F. NAVAS.
   8:main.c        ****  *
   9:main.c        ****  * ========================================
  10:main.c        **** */
  11:main.c        **** 
  12:main.c        **** #include <stdio.h>
  13:main.c        **** #include <stdlib.h>
  14:main.c        **** #include <string.h>
  15:main.c        **** #include "project.h"
  16:main.c        **** #include "ugui.h"
  17:main.c        **** #include "ugui_SSD1963.h"
  18:main.c        **** #include "Images.h"
  19:main.c        **** #include "XPT2046.h"
  20:main.c        **** 
  21:main.c        **** 
  22:main.c        **** #define MAX_OBJECTS 10
  23:main.c        **** #define BuffOUT     40
  24:main.c        **** 
  25:main.c        **** char bufferOut[BuffOUT];
  26:main.c        **** 
  27:main.c        **** uint16 Px, Py;
  28:main.c        **** 
  29:main.c        **** UG_WINDOW window_1;
  30:main.c        **** UG_BUTTON button_1;
ARM GAS  C:\Users\afne7\AppData\Local\Temp\ccb9AljK.s 			page 2


  31:main.c        **** UG_BUTTON button_2;
  32:main.c        **** UG_BUTTON button_3;
  33:main.c        **** UG_BUTTON button_4;
  34:main.c        **** UG_TEXTBOX textbox_1;
  35:main.c        **** UG_IMAGE image_1;
  36:main.c        **** const UG_BMP logo =     // Construct the BMP structure with the Image data
  37:main.c        **** {
  38:main.c        ****     (void*)acCapture,   // Data Image
  39:main.c        ****     195,                // Image Width
  40:main.c        ****     102,                // Image Heigth
  41:main.c        ****     0,                  // BPP for RGB888 is 24BPP as default (BMP_BPP_24 doesn't exist)
  42:main.c        ****     BMP_RGB888          // Use RGB888 for RGB 24Bits BMP Image
  43:main.c        **** };
  44:main.c        **** UG_OBJECT obj_buff_wnd_1[MAX_OBJECTS];
  45:main.c        **** 
  46:main.c        **** void window_1_callback(UG_MESSAGE *msg);
  47:main.c        **** 
  48:main.c        **** int main(void)
  49:main.c        **** {
  50:main.c        ****     UG_COLOR color[3];
  51:main.c        ****         
  52:main.c        ****     CyGlobalIntEnable; /* Enable global interrupts. */
  53:main.c        ****     color[0] = C_RED;
  54:main.c        ****     color[1] = C_GREEN;
  55:main.c        ****     color[2] = C_BLUE;
  56:main.c        ****     
  57:main.c        ****     /* Place your initialization/startup code here (e.g. MyInst_Start()) */
  58:main.c        ****     //Clock_LCD_SetDividerRegister(0,1);   // Full clock speed
  59:main.c        ****     GraphicLCDIntf_Start();
  60:main.c        ****     Display_Init();
  61:main.c        ****     XPT2046_Start();                       // Start Touch Controller
  62:main.c        ****  
  63:main.c        ****     CyDelay(50);
  64:main.c        ****     
  65:main.c        ****     /* Clear screen. */
  66:main.c        ****     UG_FillScreen(C_BLACK);
  67:main.c        ****     UG_DrawFrame(0, 0, 799, 479, C_LIGHT_GRAY);     // Draw a Frame
  68:main.c        ****     CyDelay(10);
  69:main.c        ****     D_BL_Write(1);      // Turn on BackLight    
  70:main.c        ****     
  71:main.c        ****     //Some Texts
  72:main.c        ****     UG_FontSelect(&FONT_12X16);
  73:main.c        ****     UG_SetBackcolor(C_BLACK);
  74:main.c        ****     UG_SetForecolor(C_YELLOW);
  75:main.c        ****     sprintf(bufferOut,"TFT 5\"   (%dx%d)", DISPLAY_WIDTH, DISPLAY_HEIGHT);
  76:main.c        ****     UG_PutString(5, 5 , bufferOut);
  77:main.c        ****     UG_FontSelect(&FONT_12X16);
  78:main.c        ****     UG_SetBackcolor(C_BLACK);
  79:main.c        ****     UG_SetForecolor(C_YELLOW);
  80:main.c        ****     UG_PutString(5, 23, "PSoC 5LP (CY8CKIT-050)");
  81:main.c        **** 
  82:main.c        ****     
  83:main.c        ****     // Create the window
  84:main.c        ****     UG_WindowCreate(&window_1, obj_buff_wnd_1, MAX_OBJECTS, window_1_callback);
  85:main.c        ****     // Window Title
  86:main.c        ****     UG_WindowSetTitleText(&window_1, "Test Window - \xe6GUI v0.31   \x02");      //  \xhh : Special
  87:main.c        ****     UG_WindowSetTitleTextFont(&window_1, &FONT_12X16);
ARM GAS  C:\Users\afne7\AppData\Local\Temp\ccb9AljK.s 			page 3


  88:main.c        ****     UG_WindowSetXStart(&window_1, 275);
  89:main.c        ****     UG_WindowSetYStart(&window_1, 200);
  90:main.c        ****     UG_WindowSetXEnd(&window_1, 725);       // Window 450x250
  91:main.c        ****     UG_WindowSetYEnd(&window_1, 450);
  92:main.c        ****     
  93:main.c        ****     // Create Buttons
  94:main.c        ****     UG_ButtonCreate(&window_1, &button_1, BTN_ID_0, 10, 10, 110, 60);
  95:main.c        ****     UG_ButtonCreate(&window_1, &button_2, BTN_ID_1, 10, 80, 110, 130);
  96:main.c        ****     UG_ButtonCreate(&window_1, &button_3, BTN_ID_2, 10, 150, 110, 200);
  97:main.c        ****     UG_ButtonCreate(&window_1, &button_4, BTN_ID_3, 170, 100, 170 + logo.width, 100 + logo.height);
  98:main.c        ****     //Label Buttons
  99:main.c        ****     UG_ButtonSetFont(&window_1,BTN_ID_0,&FONT_8X14);
 100:main.c        ****     UG_ButtonSetForeColor(&window_1,BTN_ID_0, C_BLUE);
 101:main.c        ****     UG_ButtonSetText(&window_1,BTN_ID_0,"Button \nA");
 102:main.c        ****     UG_ButtonSetFont(&window_1,BTN_ID_1,&FONT_8X14);
 103:main.c        ****     UG_ButtonSetForeColor(&window_1,BTN_ID_1, C_RED);
 104:main.c        ****     UG_ButtonSetText(&window_1,BTN_ID_1,"Button \nB");
 105:main.c        ****     UG_ButtonSetFont(&window_1,BTN_ID_2,&FONT_8X14);
 106:main.c        ****     UG_ButtonSetForeColor(&window_1,BTN_ID_2, C_BLACK);
 107:main.c        ****     UG_ButtonSetText(&window_1,BTN_ID_2,"Button \nC");
 108:main.c        ****     
 109:main.c        ****     // Create Textbox
 110:main.c        ****     UG_TextboxCreate(&window_1, &textbox_1, TXB_ID_0, 120, 10, 440, 80);
 111:main.c        ****     UG_TextboxSetFont(&window_1, TXB_ID_0, &FONT_16X26);
 112:main.c        ****     UG_TextboxSetText(&window_1, TXB_ID_0, "This is a \n test sample window!");
 113:main.c        ****     UG_TextboxSetForeColor(&window_1, TXB_ID_0, C_BLACK);
 114:main.c        ****     UG_TextboxSetAlignment(&window_1, TXB_ID_0, ALIGN_CENTER);
 115:main.c        ****     
 116:main.c        ****     // Create Image
 117:main.c        ****     UG_ImageCreate(&window_1, &image_1, IMG_ID_0, 170, 100, 170 + logo.width, 100 + logo.height); /
 118:main.c        ****     UG_ImageSetBMP(&window_1, IMG_ID_0, &logo);
 119:main.c        ****     
 120:main.c        ****     UG_WindowShow(&window_1);
 121:main.c        ****     UG_Update();
 122:main.c        ****     
 123:main.c        ****     HW_DrawImage(20, 200, 215, 302, logo.p, (logo.width*logo.height));
 124:main.c        ****     
 125:main.c        ****     for(;;)
 126:main.c        ****     {
 127:main.c        ****     /* Some graphic primitives for testing. */      
 128:main.c        ****         
 129:main.c        ****         UG_DrawFrame(3, 49, 124, 156, C_RED);
 130:main.c        ****         UG_FillFrame(4, 50, 123, 155, color[0]);
 131:main.c        ****         UG_DrawFrame(126, 49, 247, 156, C_GREEN);
 132:main.c        ****         UG_FillFrame(127, 50, 246, 155, color[1]);
 133:main.c        ****         UG_DrawFrame(249, 49, 370, 156, C_BLUE);
 134:main.c        ****         UG_FillFrame(250, 50, 369, 155, color[2]);
 135:main.c        ****         
 136:main.c        ****         UG_FontSelect(&FONT_22X36);
 137:main.c        ****         UG_SetBackcolor(C_BLACK);
 138:main.c        ****         UG_SetForecolor(C_WHITE);
 139:main.c        ****         UG_PutString(400, 90, "Andres Navas");
 140:main.c        ****         UG_Update();
 141:main.c        ****         
 142:main.c        ****         CyDelay(200);
 143:main.c        ****         
 144:main.c        ****         color[0] = color[0] >> 8;
ARM GAS  C:\Users\afne7\AppData\Local\Temp\ccb9AljK.s 			page 4


 145:main.c        ****         color[1] = color[1] >> 8;
 146:main.c        ****         color[2] = color[2] >> 8;
 147:main.c        ****         if(color[0] == 0x000000) color[0] = C_RED;
 148:main.c        ****         if(color[1] == 0x000000) color[1] = C_RED;
 149:main.c        ****         if(color[2] == 0x000000) color[2] = C_RED;
 150:main.c        ****         
 151:main.c        ****             
 152:main.c        ****         if(XPT2046_IRQ == 0)        // Touch IRQ
 153:main.c        ****         {
 154:main.c        ****             
 155:main.c        ****             XPT2046_ReadPos(0x90);
 156:main.c        ****             Py = XPT2046_ReadPos(0x90);
 157:main.c        ****             XPT2046_ReadPos(0xd0);
 158:main.c        ****             Px = XPT2046_ReadPos(0xd0);
 159:main.c        ****             if(XPT2046_ReadXY(&PosX, &PosY))    UG_TouchUpdate(PosX, PosY, TOUCH_STATE_PRESSED);   
 160:main.c        ****             UG_FontSelect(&FONT_12X16);
 161:main.c        ****             UG_SetBackcolor(C_BLACK);
 162:main.c        ****             UG_SetForecolor(C_RED);
 163:main.c        ****         }
 164:main.c        ****         else 
 165:main.c        ****         {
 166:main.c        ****             UG_TouchUpdate(-1, -1, TOUCH_STATE_RELEASED);
 167:main.c        ****             UG_FontSelect(&FONT_12X16);
 168:main.c        ****             UG_SetBackcolor(C_BLACK);
 169:main.c        ****             UG_SetForecolor(C_GREEN);
 170:main.c        ****         }
 171:main.c        ****         sprintf(bufferOut,"X = %d | %d  ", Px, PosX);
 172:main.c        ****         UG_PutString(350, 5 , bufferOut);
 173:main.c        ****         sprintf(bufferOut,"Y = %d | %d  ", Py, PosY);
 174:main.c        ****         UG_PutString(350, 23, bufferOut);     
 175:main.c        ****         sprintf(bufferOut,"Z = %d   ", XPT2046_ReadZ());
 176:main.c        ****         UG_PutString(600, 13, bufferOut);
 177:main.c        ****     }
 178:main.c        **** }
 179:main.c        **** 
 180:main.c        **** void window_1_callback(UG_MESSAGE *msg)
 181:main.c        **** {
  28              		.loc 1 181 0
  29              		.cfi_startproc
  30              		@ args = 0, pretend = 0, frame = 0
  31              		@ frame_needed = 0, uses_anonymous_args = 0
  32              	.LVL0:
 182:main.c        ****     if(msg->type == MSG_TYPE_OBJECT)
  33              		.loc 1 182 0
  34 0000 0378     		ldrb	r3, [r0]	@ zero_extendqisi2
  35 0002 022B     		cmp	r3, #2
  36 0004 44D1     		bne	.L11
 183:main.c        ****     {
 184:main.c        ****         if(msg->id == OBJ_TYPE_BUTTON)
  37              		.loc 1 184 0
  38 0006 4378     		ldrb	r3, [r0, #1]	@ zero_extendqisi2
  39 0008 012B     		cmp	r3, #1
  40 000a 41D1     		bne	.L11
 181:main.c        ****     if(msg->type == MSG_TYPE_OBJECT)
  41              		.loc 1 181 0
  42 000c 10B5     		push	{r4, lr}
  43              		.cfi_def_cfa_offset 8
ARM GAS  C:\Users\afne7\AppData\Local\Temp\ccb9AljK.s 			page 5


  44              		.cfi_offset 4, -8
  45              		.cfi_offset 14, -4
  46 000e 0446     		mov	r4, r0
 185:main.c        ****         {
 186:main.c        ****             if(msg->event == OBJ_EVENT_PRESSED)
  47              		.loc 1 186 0
  48 0010 C378     		ldrb	r3, [r0, #3]	@ zero_extendqisi2
  49 0012 042B     		cmp	r3, #4
  50 0014 28D1     		bne	.L3
 187:main.c        ****             {
 188:main.c        ****                 switch(msg->sub_id)
  51              		.loc 1 188 0
  52 0016 8378     		ldrb	r3, [r0, #2]	@ zero_extendqisi2
  53 0018 032B     		cmp	r3, #3
  54 001a 25D8     		bhi	.L3
  55 001c DFE803F0 		tbb	[pc, r3]
  56              	.L5:
  57 0020 02       		.byte	(.L4-.L5)/2
  58 0021 0A       		.byte	(.L6-.L5)/2
  59 0022 10       		.byte	(.L7-.L5)/2
  60 0023 18       		.byte	(.L8-.L5)/2
  61              		.p2align 1
  62              	.L4:
 189:main.c        ****                 {
 190:main.c        ****                     case BTN_ID_0:
 191:main.c        ****                     {
 192:main.c        ****                         LED4_Write(0);
  63              		.loc 1 192 0
  64 0024 0020     		movs	r0, #0
  65              	.LVL1:
  66 0026 FFF7FEFF 		bl	LED4_Write
  67              	.LVL2:
 193:main.c        ****                         UG_ButtonHide(&window_1,BTN_ID_1);
  68              		.loc 1 193 0
  69 002a 0121     		movs	r1, #1
  70 002c 1948     		ldr	r0, .L12
  71 002e FFF7FEFF 		bl	UG_ButtonHide
  72              	.LVL3:
 194:main.c        ****                         break;
  73              		.loc 1 194 0
  74 0032 19E0     		b	.L3
  75              	.LVL4:
  76              	.L6:
 195:main.c        ****                     }
 196:main.c        ****                     case BTN_ID_1:
 197:main.c        ****                     {
 198:main.c        ****                         UG_TextboxSetText(&window_1, TXB_ID_0, "Button B \nPressed!");
  77              		.loc 1 198 0
  78 0034 184A     		ldr	r2, .L12+4
  79 0036 0021     		movs	r1, #0
  80 0038 1648     		ldr	r0, .L12
  81              	.LVL5:
  82 003a FFF7FEFF 		bl	UG_TextboxSetText
  83              	.LVL6:
 199:main.c        ****                         break;
  84              		.loc 1 199 0
  85 003e 13E0     		b	.L3
ARM GAS  C:\Users\afne7\AppData\Local\Temp\ccb9AljK.s 			page 6


  86              	.LVL7:
  87              	.L7:
 200:main.c        ****                     }
 201:main.c        ****                     case BTN_ID_2:
 202:main.c        ****                     {
 203:main.c        ****                         LED4_Write(1);
  88              		.loc 1 203 0
  89 0040 0120     		movs	r0, #1
  90              	.LVL8:
  91 0042 FFF7FEFF 		bl	LED4_Write
  92              	.LVL9:
 204:main.c        ****                         UG_ButtonShow(&window_1,BTN_ID_1);
  93              		.loc 1 204 0
  94 0046 0121     		movs	r1, #1
  95 0048 1248     		ldr	r0, .L12
  96 004a FFF7FEFF 		bl	UG_ButtonShow
  97              	.LVL10:
 205:main.c        ****                         break;
  98              		.loc 1 205 0
  99 004e 0BE0     		b	.L3
 100              	.LVL11:
 101              	.L8:
 206:main.c        ****                     }
 207:main.c        ****                     case BTN_ID_3:
 208:main.c        ****                     {
 209:main.c        ****                         UG_TextboxSetText(&window_1, TXB_ID_0, "Image \nPressed!");
 102              		.loc 1 209 0
 103 0050 124A     		ldr	r2, .L12+8
 104 0052 0021     		movs	r1, #0
 105 0054 0F48     		ldr	r0, .L12
 106              	.LVL12:
 107 0056 FFF7FEFF 		bl	UG_TextboxSetText
 108              	.LVL13:
 210:main.c        ****                         LED4_Write(!LED4_Read());
 109              		.loc 1 210 0
 110 005a FFF7FEFF 		bl	LED4_Read
 111              	.LVL14:
 112 005e B0FA80F0 		clz	r0, r0
 113 0062 4009     		lsrs	r0, r0, #5
 114 0064 FFF7FEFF 		bl	LED4_Write
 115              	.LVL15:
 116              	.L3:
 211:main.c        ****                         break;
 212:main.c        ****                     }
 213:main.c        ****                 }
 214:main.c        ****             }
 215:main.c        ****             if(msg->event == OBJ_EVENT_RELEASED)
 117              		.loc 1 215 0
 118 0068 E378     		ldrb	r3, [r4, #3]	@ zero_extendqisi2
 119 006a 052B     		cmp	r3, #5
 120 006c 0FD1     		bne	.L1
 216:main.c        ****             {
 217:main.c        ****                 if(msg->sub_id == BTN_ID_1)
 121              		.loc 1 217 0
 122 006e A378     		ldrb	r3, [r4, #2]	@ zero_extendqisi2
 123 0070 012B     		cmp	r3, #1
 124 0072 04D1     		bne	.L9
ARM GAS  C:\Users\afne7\AppData\Local\Temp\ccb9AljK.s 			page 7


 218:main.c        ****                 {
 219:main.c        ****                         UG_TextboxSetText(&window_1, TXB_ID_0, "This is a \n test sample window!");
 125              		.loc 1 219 0
 126 0074 0A4A     		ldr	r2, .L12+12
 127 0076 0021     		movs	r1, #0
 128 0078 0648     		ldr	r0, .L12
 129 007a FFF7FEFF 		bl	UG_TextboxSetText
 130              	.LVL16:
 131              	.L9:
 220:main.c        ****                 }
 221:main.c        ****                 if(msg->sub_id == BTN_ID_3)
 132              		.loc 1 221 0
 133 007e A378     		ldrb	r3, [r4, #2]	@ zero_extendqisi2
 134 0080 032B     		cmp	r3, #3
 135 0082 04D1     		bne	.L1
 222:main.c        ****                 {
 223:main.c        ****                         UG_TextboxSetText(&window_1, TXB_ID_0, "This is a \n test sample window!");
 136              		.loc 1 223 0
 137 0084 064A     		ldr	r2, .L12+12
 138 0086 0021     		movs	r1, #0
 139 0088 0248     		ldr	r0, .L12
 140 008a FFF7FEFF 		bl	UG_TextboxSetText
 141              	.LVL17:
 142              	.L1:
 143 008e 10BD     		pop	{r4, pc}
 144              	.LVL18:
 145              	.L11:
 146              		.cfi_def_cfa_offset 0
 147              		.cfi_restore 4
 148              		.cfi_restore 14
 149 0090 7047     		bx	lr
 150              	.L13:
 151 0092 00BF     		.align	2
 152              	.L12:
 153 0094 00000000 		.word	window_1
 154 0098 00000000 		.word	.LC0
 155 009c 14000000 		.word	.LC1
 156 00a0 24000000 		.word	.LC2
 157              		.cfi_endproc
 158              	.LFE65:
 159              		.size	window_1_callback, .-window_1_callback
 160              		.section	.text.main,"ax",%progbits
 161              		.align	2
 162              		.global	main
 163              		.thumb
 164              		.thumb_func
 165              		.type	main, %function
 166              	main:
 167              	.LFB64:
  49:main.c        ****     UG_COLOR color[3];
 168              		.loc 1 49 0
 169              		.cfi_startproc
 170              		@ args = 0, pretend = 0, frame = 16
 171              		@ frame_needed = 0, uses_anonymous_args = 0
 172 0000 2DE9F04F 		push	{r4, r5, r6, r7, r8, r9, r10, fp, lr}
 173              		.cfi_def_cfa_offset 36
 174              		.cfi_offset 4, -36
ARM GAS  C:\Users\afne7\AppData\Local\Temp\ccb9AljK.s 			page 8


 175              		.cfi_offset 5, -32
 176              		.cfi_offset 6, -28
 177              		.cfi_offset 7, -24
 178              		.cfi_offset 8, -20
 179              		.cfi_offset 9, -16
 180              		.cfi_offset 10, -12
 181              		.cfi_offset 11, -8
 182              		.cfi_offset 14, -4
 183 0004 89B0     		sub	sp, sp, #36
 184              		.cfi_def_cfa_offset 72
  52:main.c        ****     color[0] = C_RED;
 185              		.loc 1 52 0
 186              		.syntax unified
 187              	@ 52 "main.c" 1
 188 0006 62B6     		CPSIE   i
 189              	@ 0 "" 2
  53:main.c        ****     color[1] = C_GREEN;
 190              		.loc 1 53 0
 191              		.thumb
 192              		.syntax unified
 193 0008 4FF47F03 		mov	r3, #16711680
 194 000c 0593     		str	r3, [sp, #20]
  54:main.c        ****     color[2] = C_BLUE;
 195              		.loc 1 54 0
 196 000e 4FF47F43 		mov	r3, #65280
 197 0012 0693     		str	r3, [sp, #24]
  55:main.c        ****     
 198              		.loc 1 55 0
 199 0014 4FF0FF0B 		mov	fp, #255
 200 0018 CDF81CB0 		str	fp, [sp, #28]
  59:main.c        ****     Display_Init();
 201              		.loc 1 59 0
 202 001c FFF7FEFF 		bl	GraphicLCDIntf_Start
 203              	.LVL19:
  60:main.c        ****     XPT2046_Start();                       // Start Touch Controller
 204              		.loc 1 60 0
 205 0020 FFF7FEFF 		bl	Display_Init
 206              	.LVL20:
  61:main.c        ****  
 207              		.loc 1 61 0
 208 0024 FFF7FEFF 		bl	XPT2046_Start
 209              	.LVL21:
  63:main.c        ****     
 210              		.loc 1 63 0
 211 0028 3220     		movs	r0, #50
 212 002a FFF7FEFF 		bl	CyDelay
 213              	.LVL22:
  66:main.c        ****     UG_DrawFrame(0, 0, 799, 479, C_LIGHT_GRAY);     // Draw a Frame
 214              		.loc 1 66 0
 215 002e 0020     		movs	r0, #0
 216 0030 FFF7FEFF 		bl	UG_FillScreen
 217              	.LVL23:
  67:main.c        ****     CyDelay(10);
 218              		.loc 1 67 0
 219 0034 C24B     		ldr	r3, .L23
 220 0036 0093     		str	r3, [sp]
 221 0038 40F2DF13 		movw	r3, #479
ARM GAS  C:\Users\afne7\AppData\Local\Temp\ccb9AljK.s 			page 9


 222 003c 40F21F32 		movw	r2, #799
 223 0040 0021     		movs	r1, #0
 224 0042 0846     		mov	r0, r1
 225 0044 FFF7FEFF 		bl	UG_DrawFrame
 226              	.LVL24:
  68:main.c        ****     D_BL_Write(1);      // Turn on BackLight    
 227              		.loc 1 68 0
 228 0048 0A20     		movs	r0, #10
 229 004a FFF7FEFF 		bl	CyDelay
 230              	.LVL25:
  69:main.c        ****     
 231              		.loc 1 69 0
 232 004e 0120     		movs	r0, #1
 233 0050 FFF7FEFF 		bl	D_BL_Write
 234              	.LVL26:
  72:main.c        ****     UG_SetBackcolor(C_BLACK);
 235              		.loc 1 72 0
 236 0054 BB4D     		ldr	r5, .L23+4
 237 0056 2846     		mov	r0, r5
 238 0058 FFF7FEFF 		bl	UG_FontSelect
 239              	.LVL27:
  73:main.c        ****     UG_SetForecolor(C_YELLOW);
 240              		.loc 1 73 0
 241 005c 0020     		movs	r0, #0
 242 005e FFF7FEFF 		bl	UG_SetBackcolor
 243              	.LVL28:
  74:main.c        ****     sprintf(bufferOut,"TFT 5\"   (%dx%d)", DISPLAY_WIDTH, DISPLAY_HEIGHT);
 244              		.loc 1 74 0
 245 0062 B94C     		ldr	r4, .L23+8
 246 0064 2046     		mov	r0, r4
 247 0066 FFF7FEFF 		bl	UG_SetForecolor
 248              	.LVL29:
  75:main.c        ****     UG_PutString(5, 5 , bufferOut);
 249              		.loc 1 75 0
 250 006a B84E     		ldr	r6, .L23+12
 251 006c 4FF4F073 		mov	r3, #480
 252 0070 4FF44872 		mov	r2, #800
 253 0074 B649     		ldr	r1, .L23+16
 254 0076 3046     		mov	r0, r6
 255 0078 FFF7FEFF 		bl	sprintf
 256              	.LVL30:
  76:main.c        ****     UG_FontSelect(&FONT_12X16);
 257              		.loc 1 76 0
 258 007c 3246     		mov	r2, r6
 259 007e 0521     		movs	r1, #5
 260 0080 0846     		mov	r0, r1
 261 0082 FFF7FEFF 		bl	UG_PutString
 262              	.LVL31:
  77:main.c        ****     UG_SetBackcolor(C_BLACK);
 263              		.loc 1 77 0
 264 0086 2846     		mov	r0, r5
 265 0088 FFF7FEFF 		bl	UG_FontSelect
 266              	.LVL32:
  78:main.c        ****     UG_SetForecolor(C_YELLOW);
 267              		.loc 1 78 0
 268 008c 0020     		movs	r0, #0
 269 008e FFF7FEFF 		bl	UG_SetBackcolor
ARM GAS  C:\Users\afne7\AppData\Local\Temp\ccb9AljK.s 			page 10


 270              	.LVL33:
  79:main.c        ****     UG_PutString(5, 23, "PSoC 5LP (CY8CKIT-050)");
 271              		.loc 1 79 0
 272 0092 2046     		mov	r0, r4
 273 0094 FFF7FEFF 		bl	UG_SetForecolor
 274              	.LVL34:
  80:main.c        **** 
 275              		.loc 1 80 0
 276 0098 AE4A     		ldr	r2, .L23+20
 277 009a 1721     		movs	r1, #23
 278 009c 0520     		movs	r0, #5
 279 009e FFF7FEFF 		bl	UG_PutString
 280              	.LVL35:
  84:main.c        ****     // Window Title
 281              		.loc 1 84 0
 282 00a2 AD4C     		ldr	r4, .L23+24
 283 00a4 AD4B     		ldr	r3, .L23+28
 284 00a6 0A22     		movs	r2, #10
 285 00a8 AD49     		ldr	r1, .L23+32
 286 00aa 2046     		mov	r0, r4
 287 00ac FFF7FEFF 		bl	UG_WindowCreate
 288              	.LVL36:
  86:main.c        ****     UG_WindowSetTitleTextFont(&window_1, &FONT_12X16);
 289              		.loc 1 86 0
 290 00b0 AC49     		ldr	r1, .L23+36
 291 00b2 2046     		mov	r0, r4
 292 00b4 FFF7FEFF 		bl	UG_WindowSetTitleText
 293              	.LVL37:
  87:main.c        ****     UG_WindowSetXStart(&window_1, 275);
 294              		.loc 1 87 0
 295 00b8 2946     		mov	r1, r5
 296 00ba 2046     		mov	r0, r4
 297 00bc FFF7FEFF 		bl	UG_WindowSetTitleTextFont
 298              	.LVL38:
  88:main.c        ****     UG_WindowSetYStart(&window_1, 200);
 299              		.loc 1 88 0
 300 00c0 40F21311 		movw	r1, #275
 301 00c4 2046     		mov	r0, r4
 302 00c6 FFF7FEFF 		bl	UG_WindowSetXStart
 303              	.LVL39:
  89:main.c        ****     UG_WindowSetXEnd(&window_1, 725);       // Window 450x250
 304              		.loc 1 89 0
 305 00ca C821     		movs	r1, #200
 306 00cc 2046     		mov	r0, r4
 307 00ce FFF7FEFF 		bl	UG_WindowSetYStart
 308              	.LVL40:
  90:main.c        ****     UG_WindowSetYEnd(&window_1, 450);
 309              		.loc 1 90 0
 310 00d2 40F2D521 		movw	r1, #725
 311 00d6 2046     		mov	r0, r4
 312 00d8 FFF7FEFF 		bl	UG_WindowSetXEnd
 313              	.LVL41:
  91:main.c        ****     
 314              		.loc 1 91 0
 315 00dc 4FF4E171 		mov	r1, #450
 316 00e0 2046     		mov	r0, r4
 317 00e2 FFF7FEFF 		bl	UG_WindowSetYEnd
ARM GAS  C:\Users\afne7\AppData\Local\Temp\ccb9AljK.s 			page 11


 318              	.LVL42:
  94:main.c        ****     UG_ButtonCreate(&window_1, &button_2, BTN_ID_1, 10, 80, 110, 130);
 319              		.loc 1 94 0
 320 00e6 3C23     		movs	r3, #60
 321 00e8 0293     		str	r3, [sp, #8]
 322 00ea 6E26     		movs	r6, #110
 323 00ec 0196     		str	r6, [sp, #4]
 324 00ee 0A25     		movs	r5, #10
 325 00f0 0095     		str	r5, [sp]
 326 00f2 2B46     		mov	r3, r5
 327 00f4 0022     		movs	r2, #0
 328 00f6 9C49     		ldr	r1, .L23+40
 329 00f8 2046     		mov	r0, r4
 330 00fa FFF7FEFF 		bl	UG_ButtonCreate
 331              	.LVL43:
  95:main.c        ****     UG_ButtonCreate(&window_1, &button_3, BTN_ID_2, 10, 150, 110, 200);
 332              		.loc 1 95 0
 333 00fe 8223     		movs	r3, #130
 334 0100 0293     		str	r3, [sp, #8]
 335 0102 0196     		str	r6, [sp, #4]
 336 0104 4FF0500A 		mov	r10, #80
 337 0108 CDF800A0 		str	r10, [sp]
 338 010c 2B46     		mov	r3, r5
 339 010e 0122     		movs	r2, #1
 340 0110 9649     		ldr	r1, .L23+44
 341 0112 2046     		mov	r0, r4
 342 0114 FFF7FEFF 		bl	UG_ButtonCreate
 343              	.LVL44:
  96:main.c        ****     UG_ButtonCreate(&window_1, &button_4, BTN_ID_3, 170, 100, 170 + logo.width, 100 + logo.height);
 344              		.loc 1 96 0
 345 0118 C823     		movs	r3, #200
 346 011a 0293     		str	r3, [sp, #8]
 347 011c 0196     		str	r6, [sp, #4]
 348 011e 9623     		movs	r3, #150
 349 0120 0093     		str	r3, [sp]
 350 0122 2B46     		mov	r3, r5
 351 0124 0222     		movs	r2, #2
 352 0126 9249     		ldr	r1, .L23+48
 353 0128 2046     		mov	r0, r4
 354 012a FFF7FEFF 		bl	UG_ButtonCreate
 355              	.LVL45:
  97:main.c        ****     //Label Buttons
 356              		.loc 1 97 0
 357 012e 4FF0CA09 		mov	r9, #202
 358 0132 CDF80890 		str	r9, [sp, #8]
 359 0136 40F26D18 		movw	r8, #365
 360 013a CDF80480 		str	r8, [sp, #4]
 361 013e 6427     		movs	r7, #100
 362 0140 0097     		str	r7, [sp]
 363 0142 AA23     		movs	r3, #170
 364 0144 0322     		movs	r2, #3
 365 0146 8B49     		ldr	r1, .L23+52
 366 0148 2046     		mov	r0, r4
 367 014a FFF7FEFF 		bl	UG_ButtonCreate
 368              	.LVL46:
  99:main.c        ****     UG_ButtonSetForeColor(&window_1,BTN_ID_0, C_BLUE);
 369              		.loc 1 99 0
ARM GAS  C:\Users\afne7\AppData\Local\Temp\ccb9AljK.s 			page 12


 370 014e 8A4E     		ldr	r6, .L23+56
 371 0150 3246     		mov	r2, r6
 372 0152 0021     		movs	r1, #0
 373 0154 2046     		mov	r0, r4
 374 0156 FFF7FEFF 		bl	UG_ButtonSetFont
 375              	.LVL47:
 100:main.c        ****     UG_ButtonSetText(&window_1,BTN_ID_0,"Button \nA");
 376              		.loc 1 100 0
 377 015a 5A46     		mov	r2, fp
 378 015c 0021     		movs	r1, #0
 379 015e 2046     		mov	r0, r4
 380 0160 FFF7FEFF 		bl	UG_ButtonSetForeColor
 381              	.LVL48:
 101:main.c        ****     UG_ButtonSetFont(&window_1,BTN_ID_1,&FONT_8X14);
 382              		.loc 1 101 0
 383 0164 854A     		ldr	r2, .L23+60
 384 0166 0021     		movs	r1, #0
 385 0168 2046     		mov	r0, r4
 386 016a FFF7FEFF 		bl	UG_ButtonSetText
 387              	.LVL49:
 102:main.c        ****     UG_ButtonSetForeColor(&window_1,BTN_ID_1, C_RED);
 388              		.loc 1 102 0
 389 016e 3246     		mov	r2, r6
 390 0170 0121     		movs	r1, #1
 391 0172 2046     		mov	r0, r4
 392 0174 FFF7FEFF 		bl	UG_ButtonSetFont
 393              	.LVL50:
 103:main.c        ****     UG_ButtonSetText(&window_1,BTN_ID_1,"Button \nB");
 394              		.loc 1 103 0
 395 0178 4FF47F02 		mov	r2, #16711680
 396 017c 0121     		movs	r1, #1
 397 017e 2046     		mov	r0, r4
 398 0180 FFF7FEFF 		bl	UG_ButtonSetForeColor
 399              	.LVL51:
 104:main.c        ****     UG_ButtonSetFont(&window_1,BTN_ID_2,&FONT_8X14);
 400              		.loc 1 104 0
 401 0184 7E4A     		ldr	r2, .L23+64
 402 0186 0121     		movs	r1, #1
 403 0188 2046     		mov	r0, r4
 404 018a FFF7FEFF 		bl	UG_ButtonSetText
 405              	.LVL52:
 105:main.c        ****     UG_ButtonSetForeColor(&window_1,BTN_ID_2, C_BLACK);
 406              		.loc 1 105 0
 407 018e 3246     		mov	r2, r6
 408 0190 0221     		movs	r1, #2
 409 0192 2046     		mov	r0, r4
 410 0194 FFF7FEFF 		bl	UG_ButtonSetFont
 411              	.LVL53:
 106:main.c        ****     UG_ButtonSetText(&window_1,BTN_ID_2,"Button \nC");
 412              		.loc 1 106 0
 413 0198 0022     		movs	r2, #0
 414 019a 0221     		movs	r1, #2
 415 019c 2046     		mov	r0, r4
 416 019e FFF7FEFF 		bl	UG_ButtonSetForeColor
 417              	.LVL54:
 107:main.c        ****     
 418              		.loc 1 107 0
ARM GAS  C:\Users\afne7\AppData\Local\Temp\ccb9AljK.s 			page 13


 419 01a2 784A     		ldr	r2, .L23+68
 420 01a4 0221     		movs	r1, #2
 421 01a6 2046     		mov	r0, r4
 422 01a8 FFF7FEFF 		bl	UG_ButtonSetText
 423              	.LVL55:
 110:main.c        ****     UG_TextboxSetFont(&window_1, TXB_ID_0, &FONT_16X26);
 424              		.loc 1 110 0
 425 01ac CDF808A0 		str	r10, [sp, #8]
 426 01b0 4FF4DC73 		mov	r3, #440
 427 01b4 0193     		str	r3, [sp, #4]
 428 01b6 0095     		str	r5, [sp]
 429 01b8 7823     		movs	r3, #120
 430 01ba 0022     		movs	r2, #0
 431 01bc 7249     		ldr	r1, .L23+72
 432 01be 2046     		mov	r0, r4
 433 01c0 FFF7FEFF 		bl	UG_TextboxCreate
 434              	.LVL56:
 111:main.c        ****     UG_TextboxSetText(&window_1, TXB_ID_0, "This is a \n test sample window!");
 435              		.loc 1 111 0
 436 01c4 714A     		ldr	r2, .L23+76
 437 01c6 0021     		movs	r1, #0
 438 01c8 2046     		mov	r0, r4
 439 01ca FFF7FEFF 		bl	UG_TextboxSetFont
 440              	.LVL57:
 112:main.c        ****     UG_TextboxSetForeColor(&window_1, TXB_ID_0, C_BLACK);
 441              		.loc 1 112 0
 442 01ce 704A     		ldr	r2, .L23+80
 443 01d0 0021     		movs	r1, #0
 444 01d2 2046     		mov	r0, r4
 445 01d4 FFF7FEFF 		bl	UG_TextboxSetText
 446              	.LVL58:
 113:main.c        ****     UG_TextboxSetAlignment(&window_1, TXB_ID_0, ALIGN_CENTER);
 447              		.loc 1 113 0
 448 01d8 0022     		movs	r2, #0
 449 01da 1146     		mov	r1, r2
 450 01dc 2046     		mov	r0, r4
 451 01de FFF7FEFF 		bl	UG_TextboxSetForeColor
 452              	.LVL59:
 114:main.c        ****     
 453              		.loc 1 114 0
 454 01e2 1222     		movs	r2, #18
 455 01e4 0021     		movs	r1, #0
 456 01e6 2046     		mov	r0, r4
 457 01e8 FFF7FEFF 		bl	UG_TextboxSetAlignment
 458              	.LVL60:
 117:main.c        ****     UG_ImageSetBMP(&window_1, IMG_ID_0, &logo);
 459              		.loc 1 117 0
 460 01ec CDF80890 		str	r9, [sp, #8]
 461 01f0 CDF80480 		str	r8, [sp, #4]
 462 01f4 0097     		str	r7, [sp]
 463 01f6 AA23     		movs	r3, #170
 464 01f8 0022     		movs	r2, #0
 465 01fa 6649     		ldr	r1, .L23+84
 466 01fc 2046     		mov	r0, r4
 467 01fe FFF7FEFF 		bl	UG_ImageCreate
 468              	.LVL61:
 118:main.c        ****     
ARM GAS  C:\Users\afne7\AppData\Local\Temp\ccb9AljK.s 			page 14


 469              		.loc 1 118 0
 470 0202 654A     		ldr	r2, .L23+88
 471 0204 0021     		movs	r1, #0
 472 0206 2046     		mov	r0, r4
 473 0208 FFF7FEFF 		bl	UG_ImageSetBMP
 474              	.LVL62:
 120:main.c        ****     UG_Update();
 475              		.loc 1 120 0
 476 020c 2046     		mov	r0, r4
 477 020e FFF7FEFF 		bl	UG_WindowShow
 478              	.LVL63:
 121:main.c        ****     
 479              		.loc 1 121 0
 480 0212 FFF7FEFF 		bl	UG_Update
 481              	.LVL64:
 123:main.c        ****     
 482              		.loc 1 123 0
 483 0216 44F6B253 		movw	r3, #19890
 484 021a 0193     		str	r3, [sp, #4]
 485 021c 5F4B     		ldr	r3, .L23+92
 486 021e 0093     		str	r3, [sp]
 487 0220 4FF49773 		mov	r3, #302
 488 0224 D722     		movs	r2, #215
 489 0226 C821     		movs	r1, #200
 490 0228 1420     		movs	r0, #20
 491 022a FFF7FEFF 		bl	HW_DrawImage
 492              	.LVL65:
 493              	.L21:
 129:main.c        ****         UG_FillFrame(4, 50, 123, 155, color[0]);
 494              		.loc 1 129 0
 495 022e 4FF47F03 		mov	r3, #16711680
 496 0232 0093     		str	r3, [sp]
 497 0234 9C23     		movs	r3, #156
 498 0236 7C22     		movs	r2, #124
 499 0238 3121     		movs	r1, #49
 500 023a 0320     		movs	r0, #3
 501 023c FFF7FEFF 		bl	UG_DrawFrame
 502              	.LVL66:
 130:main.c        ****         UG_DrawFrame(126, 49, 247, 156, C_GREEN);
 503              		.loc 1 130 0
 504 0240 059E     		ldr	r6, [sp, #20]
 505 0242 0096     		str	r6, [sp]
 506 0244 9B23     		movs	r3, #155
 507 0246 7B22     		movs	r2, #123
 508 0248 3221     		movs	r1, #50
 509 024a 0420     		movs	r0, #4
 510 024c FFF7FEFF 		bl	UG_FillFrame
 511              	.LVL67:
 131:main.c        ****         UG_FillFrame(127, 50, 246, 155, color[1]);
 512              		.loc 1 131 0
 513 0250 4FF47F43 		mov	r3, #65280
 514 0254 0093     		str	r3, [sp]
 515 0256 9C23     		movs	r3, #156
 516 0258 F722     		movs	r2, #247
 517 025a 3121     		movs	r1, #49
 518 025c 7E20     		movs	r0, #126
 519 025e FFF7FEFF 		bl	UG_DrawFrame
ARM GAS  C:\Users\afne7\AppData\Local\Temp\ccb9AljK.s 			page 15


 520              	.LVL68:
 132:main.c        ****         UG_DrawFrame(249, 49, 370, 156, C_BLUE);
 521              		.loc 1 132 0
 522 0262 069D     		ldr	r5, [sp, #24]
 523 0264 0095     		str	r5, [sp]
 524 0266 9B23     		movs	r3, #155
 525 0268 F622     		movs	r2, #246
 526 026a 3221     		movs	r1, #50
 527 026c 7F20     		movs	r0, #127
 528 026e FFF7FEFF 		bl	UG_FillFrame
 529              	.LVL69:
 133:main.c        ****         UG_FillFrame(250, 50, 369, 155, color[2]);
 530              		.loc 1 133 0
 531 0272 FF23     		movs	r3, #255
 532 0274 0093     		str	r3, [sp]
 533 0276 9C23     		movs	r3, #156
 534 0278 4FF4B972 		mov	r2, #370
 535 027c 3121     		movs	r1, #49
 536 027e F920     		movs	r0, #249
 537 0280 FFF7FEFF 		bl	UG_DrawFrame
 538              	.LVL70:
 134:main.c        ****         
 539              		.loc 1 134 0
 540 0284 079C     		ldr	r4, [sp, #28]
 541 0286 0094     		str	r4, [sp]
 542 0288 9B23     		movs	r3, #155
 543 028a 40F27112 		movw	r2, #369
 544 028e 3221     		movs	r1, #50
 545 0290 FA20     		movs	r0, #250
 546 0292 FFF7FEFF 		bl	UG_FillFrame
 547              	.LVL71:
 136:main.c        ****         UG_SetBackcolor(C_BLACK);
 548              		.loc 1 136 0
 549 0296 4248     		ldr	r0, .L23+96
 550 0298 FFF7FEFF 		bl	UG_FontSelect
 551              	.LVL72:
 137:main.c        ****         UG_SetForecolor(C_WHITE);
 552              		.loc 1 137 0
 553 029c 0020     		movs	r0, #0
 554 029e FFF7FEFF 		bl	UG_SetBackcolor
 555              	.LVL73:
 138:main.c        ****         UG_PutString(400, 90, "Andres Navas");
 556              		.loc 1 138 0
 557 02a2 6FF07F40 		mvn	r0, #-16777216
 558 02a6 FFF7FEFF 		bl	UG_SetForecolor
 559              	.LVL74:
 139:main.c        ****         UG_Update();
 560              		.loc 1 139 0
 561 02aa 3E4A     		ldr	r2, .L23+100
 562 02ac 5A21     		movs	r1, #90
 563 02ae 4FF4C870 		mov	r0, #400
 564 02b2 FFF7FEFF 		bl	UG_PutString
 565              	.LVL75:
 140:main.c        ****         
 566              		.loc 1 140 0
 567 02b6 FFF7FEFF 		bl	UG_Update
 568              	.LVL76:
ARM GAS  C:\Users\afne7\AppData\Local\Temp\ccb9AljK.s 			page 16


 142:main.c        ****         
 569              		.loc 1 142 0
 570 02ba C820     		movs	r0, #200
 571 02bc FFF7FEFF 		bl	CyDelay
 572              	.LVL77:
 144:main.c        ****         color[1] = color[1] >> 8;
 573              		.loc 1 144 0
 574 02c0 360A     		lsrs	r6, r6, #8
 575 02c2 0596     		str	r6, [sp, #20]
 145:main.c        ****         color[2] = color[2] >> 8;
 576              		.loc 1 145 0
 577 02c4 2D0A     		lsrs	r5, r5, #8
 578 02c6 0695     		str	r5, [sp, #24]
 146:main.c        ****         if(color[0] == 0x000000) color[0] = C_RED;
 579              		.loc 1 146 0
 580 02c8 240A     		lsrs	r4, r4, #8
 581 02ca 0794     		str	r4, [sp, #28]
 147:main.c        ****         if(color[1] == 0x000000) color[1] = C_RED;
 582              		.loc 1 147 0
 583 02cc 16B9     		cbnz	r6, .L15
 147:main.c        ****         if(color[1] == 0x000000) color[1] = C_RED;
 584              		.loc 1 147 0 is_stmt 0 discriminator 1
 585 02ce 4FF47F03 		mov	r3, #16711680
 586 02d2 0593     		str	r3, [sp, #20]
 587              	.L15:
 148:main.c        ****         if(color[2] == 0x000000) color[2] = C_RED;
 588              		.loc 1 148 0 is_stmt 1
 589 02d4 15B9     		cbnz	r5, .L16
 148:main.c        ****         if(color[2] == 0x000000) color[2] = C_RED;
 590              		.loc 1 148 0 is_stmt 0 discriminator 1
 591 02d6 4FF47F03 		mov	r3, #16711680
 592 02da 0693     		str	r3, [sp, #24]
 593              	.L16:
 149:main.c        ****         
 594              		.loc 1 149 0 is_stmt 1
 595 02dc 14B9     		cbnz	r4, .L17
 149:main.c        ****         
 596              		.loc 1 149 0 is_stmt 0 discriminator 1
 597 02de 4FF47F03 		mov	r3, #16711680
 598 02e2 0793     		str	r3, [sp, #28]
 599              	.L17:
 152:main.c        ****         {
 600              		.loc 1 152 0 is_stmt 1
 601 02e4 FFF7FEFF 		bl	T_IRQ_Read
 602              	.LVL78:
 603 02e8 0028     		cmp	r0, #0
 604 02ea 65D1     		bne	.L18
 155:main.c        ****             Py = XPT2046_ReadPos(0x90);
 605              		.loc 1 155 0
 606 02ec 9020     		movs	r0, #144
 607 02ee FFF7FEFF 		bl	XPT2046_ReadPos
 608              	.LVL79:
 156:main.c        ****             XPT2046_ReadPos(0xd0);
 609              		.loc 1 156 0
 610 02f2 9020     		movs	r0, #144
 611 02f4 FFF7FEFF 		bl	XPT2046_ReadPos
 612              	.LVL80:
ARM GAS  C:\Users\afne7\AppData\Local\Temp\ccb9AljK.s 			page 17


 613 02f8 2B4B     		ldr	r3, .L23+104
 614 02fa 1880     		strh	r0, [r3]	@ movhi
 157:main.c        ****             Px = XPT2046_ReadPos(0xd0);
 615              		.loc 1 157 0
 616 02fc D020     		movs	r0, #208
 617 02fe FFF7FEFF 		bl	XPT2046_ReadPos
 618              	.LVL81:
 158:main.c        ****             if(XPT2046_ReadXY(&PosX, &PosY))    UG_TouchUpdate(PosX, PosY, TOUCH_STATE_PRESSED);   
 619              		.loc 1 158 0
 620 0302 D020     		movs	r0, #208
 621 0304 FFF7FEFF 		bl	XPT2046_ReadPos
 622              	.LVL82:
 623 0308 284B     		ldr	r3, .L23+108
 624 030a 1880     		strh	r0, [r3]	@ movhi
 159:main.c        ****             UG_FontSelect(&FONT_12X16);
 625              		.loc 1 159 0
 626 030c 2849     		ldr	r1, .L23+112
 627 030e 2948     		ldr	r0, .L23+116
 628 0310 FFF7FEFF 		bl	XPT2046_ReadXY
 629              	.LVL83:
 630 0314 40B1     		cbz	r0, .L19
 159:main.c        ****             UG_FontSelect(&FONT_12X16);
 631              		.loc 1 159 0 is_stmt 0 discriminator 1
 632 0316 0122     		movs	r2, #1
 633 0318 254B     		ldr	r3, .L23+112
 634 031a B3F90010 		ldrsh	r1, [r3]
 635 031e 254B     		ldr	r3, .L23+116
 636 0320 B3F90000 		ldrsh	r0, [r3]
 637 0324 FFF7FEFF 		bl	UG_TouchUpdate
 638              	.LVL84:
 639              	.L19:
 160:main.c        ****             UG_SetBackcolor(C_BLACK);
 640              		.loc 1 160 0 is_stmt 1
 641 0328 0648     		ldr	r0, .L23+4
 642 032a FFF7FEFF 		bl	UG_FontSelect
 643              	.LVL85:
 161:main.c        ****             UG_SetForecolor(C_RED);
 644              		.loc 1 161 0
 645 032e 0020     		movs	r0, #0
 646 0330 FFF7FEFF 		bl	UG_SetBackcolor
 647              	.LVL86:
 162:main.c        ****         }
 648              		.loc 1 162 0
 649 0334 4FF47F00 		mov	r0, #16711680
 650 0338 FFF7FEFF 		bl	UG_SetForecolor
 651              	.LVL87:
 652 033c 4CE0     		b	.L20
 653              	.L24:
 654 033e 00BF     		.align	2
 655              	.L23:
 656 0340 D3D3D300 		.word	13882323
 657 0344 00000000 		.word	FONT_12X16
 658 0348 00FFFF00 		.word	16776960
 659 034c 00000000 		.word	bufferOut
 660 0350 44000000 		.word	.LC3
 661 0354 58000000 		.word	.LC4
 662 0358 00000000 		.word	window_1
ARM GAS  C:\Users\afne7\AppData\Local\Temp\ccb9AljK.s 			page 18


 663 035c 00000000 		.word	window_1_callback
 664 0360 00000000 		.word	obj_buff_wnd_1
 665 0364 70000000 		.word	.LC5
 666 0368 00000000 		.word	button_1
 667 036c 00000000 		.word	button_2
 668 0370 00000000 		.word	button_3
 669 0374 00000000 		.word	button_4
 670 0378 00000000 		.word	FONT_8X14
 671 037c 90000000 		.word	.LC6
 672 0380 9C000000 		.word	.LC7
 673 0384 A8000000 		.word	.LC8
 674 0388 00000000 		.word	textbox_1
 675 038c 00000000 		.word	FONT_16X26
 676 0390 24000000 		.word	.LC2
 677 0394 00000000 		.word	image_1
 678 0398 00000000 		.word	.LANCHOR0
 679 039c 00000000 		.word	acCapture
 680 03a0 00000000 		.word	FONT_22X36
 681 03a4 B4000000 		.word	.LC9
 682 03a8 00000000 		.word	Py
 683 03ac 00000000 		.word	Px
 684 03b0 00000000 		.word	PosY
 685 03b4 00000000 		.word	PosX
 686              	.L18:
 166:main.c        ****             UG_FontSelect(&FONT_12X16);
 687              		.loc 1 166 0
 688 03b8 0022     		movs	r2, #0
 689 03ba 4FF0FF31 		mov	r1, #-1
 690 03be 0846     		mov	r0, r1
 691 03c0 FFF7FEFF 		bl	UG_TouchUpdate
 692              	.LVL88:
 167:main.c        ****             UG_SetBackcolor(C_BLACK);
 693              		.loc 1 167 0
 694 03c4 1A48     		ldr	r0, .L25
 695 03c6 FFF7FEFF 		bl	UG_FontSelect
 696              	.LVL89:
 168:main.c        ****             UG_SetForecolor(C_GREEN);
 697              		.loc 1 168 0
 698 03ca 0020     		movs	r0, #0
 699 03cc FFF7FEFF 		bl	UG_SetBackcolor
 700              	.LVL90:
 169:main.c        ****         }
 701              		.loc 1 169 0
 702 03d0 4FF47F40 		mov	r0, #65280
 703 03d4 FFF7FEFF 		bl	UG_SetForecolor
 704              	.LVL91:
 705              	.L20:
 171:main.c        ****         UG_PutString(350, 5 , bufferOut);
 706              		.loc 1 171 0
 707 03d8 164C     		ldr	r4, .L25+4
 708 03da 174B     		ldr	r3, .L25+8
 709 03dc 1B88     		ldrh	r3, [r3]
 710 03de 174A     		ldr	r2, .L25+12
 711 03e0 1288     		ldrh	r2, [r2]
 712 03e2 1749     		ldr	r1, .L25+16
 713 03e4 2046     		mov	r0, r4
 714 03e6 FFF7FEFF 		bl	sprintf
ARM GAS  C:\Users\afne7\AppData\Local\Temp\ccb9AljK.s 			page 19


 715              	.LVL92:
 172:main.c        ****         sprintf(bufferOut,"Y = %d | %d  ", Py, PosY);
 716              		.loc 1 172 0
 717 03ea 2246     		mov	r2, r4
 718 03ec 0521     		movs	r1, #5
 719 03ee 4FF4AF70 		mov	r0, #350
 720 03f2 FFF7FEFF 		bl	UG_PutString
 721              	.LVL93:
 173:main.c        ****         UG_PutString(350, 23, bufferOut);     
 722              		.loc 1 173 0
 723 03f6 134B     		ldr	r3, .L25+20
 724 03f8 1B88     		ldrh	r3, [r3]
 725 03fa 134A     		ldr	r2, .L25+24
 726 03fc 1288     		ldrh	r2, [r2]
 727 03fe 1349     		ldr	r1, .L25+28
 728 0400 2046     		mov	r0, r4
 729 0402 FFF7FEFF 		bl	sprintf
 730              	.LVL94:
 174:main.c        ****         sprintf(bufferOut,"Z = %d   ", XPT2046_ReadZ());
 731              		.loc 1 174 0
 732 0406 2246     		mov	r2, r4
 733 0408 1721     		movs	r1, #23
 734 040a 4FF4AF70 		mov	r0, #350
 735 040e FFF7FEFF 		bl	UG_PutString
 736              	.LVL95:
 175:main.c        ****         UG_PutString(600, 13, bufferOut);
 737              		.loc 1 175 0
 738 0412 FFF7FEFF 		bl	XPT2046_ReadZ
 739              	.LVL96:
 740 0416 0246     		mov	r2, r0
 741 0418 0D49     		ldr	r1, .L25+32
 742 041a 2046     		mov	r0, r4
 743 041c FFF7FEFF 		bl	sprintf
 744              	.LVL97:
 176:main.c        ****     }
 745              		.loc 1 176 0
 746 0420 2246     		mov	r2, r4
 747 0422 0D21     		movs	r1, #13
 748 0424 4FF41670 		mov	r0, #600
 749 0428 FFF7FEFF 		bl	UG_PutString
 750              	.LVL98:
 177:main.c        **** }
 751              		.loc 1 177 0
 752 042c FFE6     		b	.L21
 753              	.L26:
 754 042e 00BF     		.align	2
 755              	.L25:
 756 0430 00000000 		.word	FONT_12X16
 757 0434 00000000 		.word	bufferOut
 758 0438 00000000 		.word	PosX
 759 043c 00000000 		.word	Px
 760 0440 C4000000 		.word	.LC10
 761 0444 00000000 		.word	PosY
 762 0448 00000000 		.word	Py
 763 044c D4000000 		.word	.LC11
 764 0450 E4000000 		.word	.LC12
 765              		.cfi_endproc
ARM GAS  C:\Users\afne7\AppData\Local\Temp\ccb9AljK.s 			page 20


 766              	.LFE64:
 767              		.size	main, .-main
 768              		.comm	obj_buff_wnd_1,320,4
 769              		.global	logo
 770              		.comm	image_1,8,4
 771              		.comm	textbox_1,24,4
 772              		.comm	button_4,32,4
 773              		.comm	button_3,32,4
 774              		.comm	button_2,32,4
 775              		.comm	button_1,32,4
 776              		.comm	window_1,68,4
 777              		.comm	Py,2,2
 778              		.comm	Px,2,2
 779              		.comm	bufferOut,40,4
 780              		.comm	PosY,2,2
 781              		.comm	PosX,2,2
 782              		.comm	gui1963,120,4
 783              		.section	.rodata
 784              		.align	2
 785              		.set	.LANCHOR0,. + 0
 786              		.type	logo, %object
 787              		.size	logo, 12
 788              	logo:
 789 0000 00000000 		.word	acCapture
 790 0004 C300     		.short	195
 791 0006 6600     		.short	102
 792 0008 00       		.byte	0
 793 0009 01       		.byte	1
 794 000a 0000     		.space	2
 795              		.section	.rodata.str1.4,"aMS",%progbits,1
 796              		.align	2
 797              	.LC0:
 798 0000 42757474 		.ascii	"Button B \012Pressed!\000"
 798      6F6E2042 
 798      200A5072 
 798      65737365 
 798      642100
 799 0013 00       		.space	1
 800              	.LC1:
 801 0014 496D6167 		.ascii	"Image \012Pressed!\000"
 801      65200A50 
 801      72657373 
 801      65642100 
 802              	.LC2:
 803 0024 54686973 		.ascii	"This is a \012 test sample window!\000"
 803      20697320 
 803      61200A20 
 803      74657374 
 803      2073616D 
 804              	.LC3:
 805 0044 54465420 		.ascii	"TFT 5\"   (%dx%d)\000"
 805      35222020 
 805      20282564 
 805      78256429 
 805      00
 806 0055 000000   		.space	3
 807              	.LC4:
ARM GAS  C:\Users\afne7\AppData\Local\Temp\ccb9AljK.s 			page 21


 808 0058 50536F43 		.ascii	"PSoC 5LP (CY8CKIT-050)\000"
 808      20354C50 
 808      20284359 
 808      38434B49 
 808      542D3035 
 809 006f 00       		.space	1
 810              	.LC5:
 811 0070 54657374 		.ascii	"Test Window - \346GUI v0.31   \002\000"
 811      2057696E 
 811      646F7720 
 811      2D20E647 
 811      55492076 
 812 008d 000000   		.space	3
 813              	.LC6:
 814 0090 42757474 		.ascii	"Button \012A\000"
 814      6F6E200A 
 814      4100
 815 009a 0000     		.space	2
 816              	.LC7:
 817 009c 42757474 		.ascii	"Button \012B\000"
 817      6F6E200A 
 817      4200
 818 00a6 0000     		.space	2
 819              	.LC8:
 820 00a8 42757474 		.ascii	"Button \012C\000"
 820      6F6E200A 
 820      4300
 821 00b2 0000     		.space	2
 822              	.LC9:
 823 00b4 416E6472 		.ascii	"Andres Navas\000"
 823      6573204E 
 823      61766173 
 823      00
 824 00c1 000000   		.space	3
 825              	.LC10:
 826 00c4 58203D20 		.ascii	"X = %d | %d  \000"
 826      2564207C 
 826      20256420 
 826      2000
 827 00d2 0000     		.space	2
 828              	.LC11:
 829 00d4 59203D20 		.ascii	"Y = %d | %d  \000"
 829      2564207C 
 829      20256420 
 829      2000
 830 00e2 0000     		.space	2
 831              	.LC12:
 832 00e4 5A203D20 		.ascii	"Z = %d   \000"
 832      25642020 
 832      2000
 833              		.text
 834              	.Letext0:
 835              		.file 2 "c:\\program files (x86)\\cypress\\psoc creator\\4.2\\psoc creator\\import\\gnu\\arm\\5.4.
 836              		.file 3 "c:\\program files (x86)\\cypress\\psoc creator\\4.2\\psoc creator\\import\\gnu\\arm\\5.4.
 837              		.file 4 "Generated_Source\\PSoC5/cytypes.h"
 838              		.file 5 ".\\uGUI_Library/ugui_config.h"
 839              		.file 6 ".\\uGUI_Library/ugui.h"
ARM GAS  C:\Users\afne7\AppData\Local\Temp\ccb9AljK.s 			page 22


 840              		.file 7 "Generated_Source\\PSoC5/core_cm3.h"
 841              		.file 8 ".\\uGUI_Driver/ugui_SSD1963.h"
 842              		.file 9 "Images.h"
 843              		.file 10 "XPT2046.h"
 844              		.file 11 "Generated_Source\\PSoC5/LED4.h"
 845              		.file 12 "Generated_Source\\PSoC5/GraphicLCDIntf.h"
 846              		.file 13 "Generated_Source\\PSoC5/CyLib.h"
 847              		.file 14 "Generated_Source\\PSoC5/D_BL.h"
 848              		.file 15 "c:\\program files (x86)\\cypress\\psoc creator\\4.2\\psoc creator\\import\\gnu\\arm\\5.4
 849              		.file 16 "Generated_Source\\PSoC5/T_IRQ.h"