ARM GAS  C:\Users\afne7\AppData\Local\Temp\ccufBIIM.s 			page 1


   1              		.syntax unified
   2              		.cpu cortex-m3
   3              		.fpu softvfp
   4              		.eabi_attribute 20, 1
   5              		.eabi_attribute 21, 1
   6              		.eabi_attribute 23, 3
   7              		.eabi_attribute 24, 1
   8              		.eabi_attribute 25, 1
   9              		.eabi_attribute 26, 1
  10              		.eabi_attribute 30, 1
  11              		.eabi_attribute 34, 1
  12              		.eabi_attribute 18, 4
  13              		.thumb
  14              		.syntax unified
  15              		.file	"ugui_SSD1963.c"
  16              		.text
  17              	.Ltext0:
  18              		.cfi_sections	.debug_frame
  19              		.section	.text.Display_Init,"ax",%progbits
  20              		.align	2
  21              		.global	Display_Init
  22              		.thumb
  23              		.thumb_func
  24              		.type	Display_Init, %function
  25              	Display_Init:
  26              	.LFB67:
  27              		.file 1 "uGUI_Driver\\ugui_SSD1963.c"
   1:uGUI_Driver/ugui_SSD1963.c **** /*******************************************************************************
   2:uGUI_Driver/ugui_SSD1963.c **** * File Name: ugui_SSD1963.c
   3:uGUI_Driver/ugui_SSD1963.c **** *
   4:uGUI_Driver/ugui_SSD1963.c **** * Description:
   5:uGUI_Driver/ugui_SSD1963.c **** *  This is a driver for the uGui graphical library developed by 
   6:uGUI_Driver/ugui_SSD1963.c **** *  Achim Döbler.
   7:uGUI_Driver/ugui_SSD1963.c **** *  It is for SSD1963 graphic controller found in a lot of low cost graphics 
   8:uGUI_Driver/ugui_SSD1963.c **** *  chinese displays an to be used with PSoC microcontrollers from Cypress.
   9:uGUI_Driver/ugui_SSD1963.c **** *  Will test it with other PSoC micros as soon as I can.
  10:uGUI_Driver/ugui_SSD1963.c **** *
  11:uGUI_Driver/ugui_SSD1963.c **** * Note:
  12:uGUI_Driver/ugui_SSD1963.c **** *  For more information about uGui...
  13:uGUI_Driver/ugui_SSD1963.c **** *  Website: http://www.embeddedlightning.com/ugui/
  14:uGUI_Driver/ugui_SSD1963.c **** *  Git: https://github.com/achimdoebler/UGUI
  15:uGUI_Driver/ugui_SSD1963.c **** *  Forum: http://www.embeddedlightning.com/forum/
  16:uGUI_Driver/ugui_SSD1963.c **** *  PDF Reference manual (excellent): http://www.embeddedlightning.com/download/reference-guide/?wpd
  17:uGUI_Driver/ugui_SSD1963.c **** *
  18:uGUI_Driver/ugui_SSD1963.c **** *  Thanks to Achim Döbler for such a god job.
  19:uGUI_Driver/ugui_SSD1963.c **** *
  20:uGUI_Driver/ugui_SSD1963.c **** * Log version:
  21:uGUI_Driver/ugui_SSD1963.c **** *  1.0 - June, 2018.       First version.
  22:uGUI_Driver/ugui_SSD1963.c **** *
  23:uGUI_Driver/ugui_SSD1963.c **** ********************************************************************************
  24:uGUI_Driver/ugui_SSD1963.c **** * Copyright (c) 2018 Andres F. Navas
  25:uGUI_Driver/ugui_SSD1963.c **** * This driver follows the same license than the uGui library.
  26:uGUI_Driver/ugui_SSD1963.c **** *******************************************************************************/
  27:uGUI_Driver/ugui_SSD1963.c **** 
  28:uGUI_Driver/ugui_SSD1963.c **** #include <project.h>
  29:uGUI_Driver/ugui_SSD1963.c **** #include "ugui.h"
  30:uGUI_Driver/ugui_SSD1963.c **** #include "ugui_SSD1963.h"
ARM GAS  C:\Users\afne7\AppData\Local\Temp\ccufBIIM.s 			page 2


  31:uGUI_Driver/ugui_SSD1963.c **** 
  32:uGUI_Driver/ugui_SSD1963.c **** #define HDP (DISPLAY_WIDTH - 1)
  33:uGUI_Driver/ugui_SSD1963.c **** #define VDP (DISPLAY_HEIGHT - 1)
  34:uGUI_Driver/ugui_SSD1963.c **** 
  35:uGUI_Driver/ugui_SSD1963.c **** inline void Display_WriteCommand(uint8_t command)
  36:uGUI_Driver/ugui_SSD1963.c **** {
  37:uGUI_Driver/ugui_SSD1963.c ****     GraphicLCDIntf_Write8(0, command);
  38:uGUI_Driver/ugui_SSD1963.c **** }
  39:uGUI_Driver/ugui_SSD1963.c **** 
  40:uGUI_Driver/ugui_SSD1963.c **** inline void Display_WriteData(uint8_t data)
  41:uGUI_Driver/ugui_SSD1963.c **** {
  42:uGUI_Driver/ugui_SSD1963.c ****     GraphicLCDIntf_Write8(1, data);
  43:uGUI_Driver/ugui_SSD1963.c **** }
  44:uGUI_Driver/ugui_SSD1963.c **** 
  45:uGUI_Driver/ugui_SSD1963.c **** inline void Display_WriteMultiData(uint8_t *data, uint16 size)
  46:uGUI_Driver/ugui_SSD1963.c **** {
  47:uGUI_Driver/ugui_SSD1963.c ****     GraphicLCDIntf_WriteM8(1, data, size);
  48:uGUI_Driver/ugui_SSD1963.c **** }
  49:uGUI_Driver/ugui_SSD1963.c **** 
  50:uGUI_Driver/ugui_SSD1963.c **** inline void Display_Reset()
  51:uGUI_Driver/ugui_SSD1963.c **** {
  52:uGUI_Driver/ugui_SSD1963.c ****     Display_WriteCommand(0x01);         //Software reset
  53:uGUI_Driver/ugui_SSD1963.c ****     CyDelay(10);
  54:uGUI_Driver/ugui_SSD1963.c **** }
  55:uGUI_Driver/ugui_SSD1963.c **** 
  56:uGUI_Driver/ugui_SSD1963.c **** void Display_Init()
  57:uGUI_Driver/ugui_SSD1963.c **** {
  28              		.loc 1 57 0
  29              		.cfi_startproc
  30              		@ args = 0, pretend = 0, frame = 0
  31              		@ frame_needed = 0, uses_anonymous_args = 0
  32 0000 10B5     		push	{r4, lr}
  33              		.cfi_def_cfa_offset 8
  34              		.cfi_offset 4, -8
  35              		.cfi_offset 14, -4
  58:uGUI_Driver/ugui_SSD1963.c ****     int i;
  59:uGUI_Driver/ugui_SSD1963.c ****     
  60:uGUI_Driver/ugui_SSD1963.c ****     CyDelay(100);
  36              		.loc 1 60 0
  37 0002 6420     		movs	r0, #100
  38 0004 FFF7FEFF 		bl	CyDelay
  39              	.LVL0:
  61:uGUI_Driver/ugui_SSD1963.c **** 	
  62:uGUI_Driver/ugui_SSD1963.c ****     for(i = 0; i < 5; i++)              // Hardware reset
  40              		.loc 1 62 0
  41 0008 0024     		movs	r4, #0
  42 000a 0CE0     		b	.L2
  43              	.LVL1:
  44              	.L3:
  63:uGUI_Driver/ugui_SSD1963.c ****     {
  64:uGUI_Driver/ugui_SSD1963.c ****         D_RST_Write(0);
  45              		.loc 1 64 0 discriminator 3
  46 000c 0020     		movs	r0, #0
  47 000e FFF7FEFF 		bl	D_RST_Write
  48              	.LVL2:
  65:uGUI_Driver/ugui_SSD1963.c **** 		CyDelay(10);
  49              		.loc 1 65 0 discriminator 3
ARM GAS  C:\Users\afne7\AppData\Local\Temp\ccufBIIM.s 			page 3


  50 0012 0A20     		movs	r0, #10
  51 0014 FFF7FEFF 		bl	CyDelay
  52              	.LVL3:
  66:uGUI_Driver/ugui_SSD1963.c ****         D_RST_Write(1);
  53              		.loc 1 66 0 discriminator 3
  54 0018 0120     		movs	r0, #1
  55 001a FFF7FEFF 		bl	D_RST_Write
  56              	.LVL4:
  67:uGUI_Driver/ugui_SSD1963.c ****         CyDelay(10);
  57              		.loc 1 67 0 discriminator 3
  58 001e 0A20     		movs	r0, #10
  59 0020 FFF7FEFF 		bl	CyDelay
  60              	.LVL5:
  62:uGUI_Driver/ugui_SSD1963.c ****     {
  61              		.loc 1 62 0 discriminator 3
  62 0024 0134     		adds	r4, r4, #1
  63              	.LVL6:
  64              	.L2:
  62:uGUI_Driver/ugui_SSD1963.c ****     {
  65              		.loc 1 62 0 is_stmt 0 discriminator 1
  66 0026 042C     		cmp	r4, #4
  67 0028 F0DD     		ble	.L3
  68              	.LVL7:
  69              	.LBB124:
  70              	.LBB125:
  71              	.LBB126:
  72              	.LBB127:
  37:uGUI_Driver/ugui_SSD1963.c **** }
  73              		.loc 1 37 0 is_stmt 1
  74 002a 0121     		movs	r1, #1
  75 002c 0020     		movs	r0, #0
  76 002e FFF7FEFF 		bl	GraphicLCDIntf_Write8
  77              	.LVL8:
  78              	.LBE127:
  79              	.LBE126:
  53:uGUI_Driver/ugui_SSD1963.c **** }
  80              		.loc 1 53 0
  81 0032 0A20     		movs	r0, #10
  82 0034 FFF7FEFF 		bl	CyDelay
  83              	.LVL9:
  84              	.LBE125:
  85              	.LBE124:
  68:uGUI_Driver/ugui_SSD1963.c **** 	}
  69:uGUI_Driver/ugui_SSD1963.c ****     
  70:uGUI_Driver/ugui_SSD1963.c ****     Display_Reset();                    //Software reset
  71:uGUI_Driver/ugui_SSD1963.c ****     CyDelay(5);
  86              		.loc 1 71 0
  87 0038 0520     		movs	r0, #5
  88 003a FFF7FEFF 		bl	CyDelay
  89              	.LVL10:
  90              	.LBB128:
  91              	.LBB129:
  92              	.LBB130:
  93              	.LBB131:
  37:uGUI_Driver/ugui_SSD1963.c **** }
  94              		.loc 1 37 0
  95 003e 0121     		movs	r1, #1
ARM GAS  C:\Users\afne7\AppData\Local\Temp\ccufBIIM.s 			page 4


  96 0040 0020     		movs	r0, #0
  97 0042 FFF7FEFF 		bl	GraphicLCDIntf_Write8
  98              	.LVL11:
  99              	.LBE131:
 100              	.LBE130:
  53:uGUI_Driver/ugui_SSD1963.c **** }
 101              		.loc 1 53 0
 102 0046 0A20     		movs	r0, #10
 103 0048 FFF7FEFF 		bl	CyDelay
 104              	.LVL12:
 105              	.LBE129:
 106              	.LBE128:
  72:uGUI_Driver/ugui_SSD1963.c ****     Display_Reset();                    //Software reset
  73:uGUI_Driver/ugui_SSD1963.c ****     CyDelay(5);
 107              		.loc 1 73 0
 108 004c 0520     		movs	r0, #5
 109 004e FFF7FEFF 		bl	CyDelay
 110              	.LVL13:
 111              	.LBB132:
 112              	.LBB133:
 113              	.LBB134:
 114              	.LBB135:
  37:uGUI_Driver/ugui_SSD1963.c **** }
 115              		.loc 1 37 0
 116 0052 0121     		movs	r1, #1
 117 0054 0020     		movs	r0, #0
 118 0056 FFF7FEFF 		bl	GraphicLCDIntf_Write8
 119              	.LVL14:
 120              	.LBE135:
 121              	.LBE134:
  53:uGUI_Driver/ugui_SSD1963.c **** }
 122              		.loc 1 53 0
 123 005a 0A20     		movs	r0, #10
 124 005c FFF7FEFF 		bl	CyDelay
 125              	.LVL15:
 126              	.LBE133:
 127              	.LBE132:
  74:uGUI_Driver/ugui_SSD1963.c ****     Display_Reset();                    //Software reset
  75:uGUI_Driver/ugui_SSD1963.c ****     CyDelay(5);
 128              		.loc 1 75 0
 129 0060 0520     		movs	r0, #5
 130 0062 FFF7FEFF 		bl	CyDelay
 131              	.LVL16:
 132              	.LBB136:
 133              	.LBB137:
  37:uGUI_Driver/ugui_SSD1963.c **** }
 134              		.loc 1 37 0
 135 0066 E221     		movs	r1, #226
 136 0068 0020     		movs	r0, #0
 137 006a FFF7FEFF 		bl	GraphicLCDIntf_Write8
 138              	.LVL17:
 139              	.LBE137:
 140              	.LBE136:
 141              	.LBB138:
 142              	.LBB139:
  42:uGUI_Driver/ugui_SSD1963.c **** }
 143              		.loc 1 42 0
ARM GAS  C:\Users\afne7\AppData\Local\Temp\ccufBIIM.s 			page 5


 144 006e 2321     		movs	r1, #35
 145 0070 0120     		movs	r0, #1
 146 0072 FFF7FEFF 		bl	GraphicLCDIntf_Write8
 147              	.LVL18:
 148              	.LBE139:
 149              	.LBE138:
 150              	.LBB140:
 151              	.LBB141:
 152 0076 0221     		movs	r1, #2
 153 0078 0120     		movs	r0, #1
 154 007a FFF7FEFF 		bl	GraphicLCDIntf_Write8
 155              	.LVL19:
 156              	.LBE141:
 157              	.LBE140:
 158              	.LBB142:
 159              	.LBB143:
 160 007e 0421     		movs	r1, #4
 161 0080 0120     		movs	r0, #1
 162 0082 FFF7FEFF 		bl	GraphicLCDIntf_Write8
 163              	.LVL20:
 164              	.LBE143:
 165              	.LBE142:
 166              	.LBB144:
 167              	.LBB145:
  37:uGUI_Driver/ugui_SSD1963.c **** }
 168              		.loc 1 37 0
 169 0086 E021     		movs	r1, #224
 170 0088 0020     		movs	r0, #0
 171 008a FFF7FEFF 		bl	GraphicLCDIntf_Write8
 172              	.LVL21:
 173              	.LBE145:
 174              	.LBE144:
 175              	.LBB146:
 176              	.LBB147:
  42:uGUI_Driver/ugui_SSD1963.c **** }
 177              		.loc 1 42 0
 178 008e 0121     		movs	r1, #1
 179 0090 0846     		mov	r0, r1
 180 0092 FFF7FEFF 		bl	GraphicLCDIntf_Write8
 181              	.LVL22:
 182              	.LBE147:
 183              	.LBE146:
  76:uGUI_Driver/ugui_SSD1963.c **** 
  77:uGUI_Driver/ugui_SSD1963.c ****     Display_WriteCommand(0xe2);         //set multiplier and divider of PLL
  78:uGUI_Driver/ugui_SSD1963.c ****     Display_WriteData(0x23);            //PLL = 120MHz
  79:uGUI_Driver/ugui_SSD1963.c ****     Display_WriteData(0x02);
  80:uGUI_Driver/ugui_SSD1963.c ****     Display_WriteData(0x04);
  81:uGUI_Driver/ugui_SSD1963.c ****     
  82:uGUI_Driver/ugui_SSD1963.c ****     Display_WriteCommand(0xe0);
  83:uGUI_Driver/ugui_SSD1963.c ****     Display_WriteData(0x01);            //Enable PLL
  84:uGUI_Driver/ugui_SSD1963.c ****     CyDelay(10);
 184              		.loc 1 84 0
 185 0096 0A20     		movs	r0, #10
 186 0098 FFF7FEFF 		bl	CyDelay
 187              	.LVL23:
 188              	.LBB148:
 189              	.LBB149:
ARM GAS  C:\Users\afne7\AppData\Local\Temp\ccufBIIM.s 			page 6


  37:uGUI_Driver/ugui_SSD1963.c **** }
 190              		.loc 1 37 0
 191 009c E021     		movs	r1, #224
 192 009e 0020     		movs	r0, #0
 193 00a0 FFF7FEFF 		bl	GraphicLCDIntf_Write8
 194              	.LVL24:
 195              	.LBE149:
 196              	.LBE148:
 197              	.LBB150:
 198              	.LBB151:
  42:uGUI_Driver/ugui_SSD1963.c **** }
 199              		.loc 1 42 0
 200 00a4 0321     		movs	r1, #3
 201 00a6 0120     		movs	r0, #1
 202 00a8 FFF7FEFF 		bl	GraphicLCDIntf_Write8
 203              	.LVL25:
 204              	.LBE151:
 205              	.LBE150:
  85:uGUI_Driver/ugui_SSD1963.c ****     
  86:uGUI_Driver/ugui_SSD1963.c ****     Display_WriteCommand(0xe0);
  87:uGUI_Driver/ugui_SSD1963.c ****     Display_WriteData(0x03);            //Lock PLL
  88:uGUI_Driver/ugui_SSD1963.c ****     CyDelay(10);
 206              		.loc 1 88 0
 207 00ac 0A20     		movs	r0, #10
 208 00ae FFF7FEFF 		bl	CyDelay
 209              	.LVL26:
 210              	.LBB152:
 211              	.LBB153:
 212              	.LBB154:
 213              	.LBB155:
  37:uGUI_Driver/ugui_SSD1963.c **** }
 214              		.loc 1 37 0
 215 00b2 0121     		movs	r1, #1
 216 00b4 0020     		movs	r0, #0
 217 00b6 FFF7FEFF 		bl	GraphicLCDIntf_Write8
 218              	.LVL27:
 219              	.LBE155:
 220              	.LBE154:
  53:uGUI_Driver/ugui_SSD1963.c **** }
 221              		.loc 1 53 0
 222 00ba 0A20     		movs	r0, #10
 223 00bc FFF7FEFF 		bl	CyDelay
 224              	.LVL28:
 225              	.LBE153:
 226              	.LBE152:
 227              	.LBB156:
 228              	.LBB157:
  37:uGUI_Driver/ugui_SSD1963.c **** }
 229              		.loc 1 37 0
 230 00c0 E621     		movs	r1, #230
 231 00c2 0020     		movs	r0, #0
 232 00c4 FFF7FEFF 		bl	GraphicLCDIntf_Write8
 233              	.LVL29:
 234              	.LBE157:
 235              	.LBE156:
 236              	.LBB158:
 237              	.LBB159:
ARM GAS  C:\Users\afne7\AppData\Local\Temp\ccufBIIM.s 			page 7


  42:uGUI_Driver/ugui_SSD1963.c **** }
 238              		.loc 1 42 0
 239 00c8 0421     		movs	r1, #4
 240 00ca 0120     		movs	r0, #1
 241 00cc FFF7FEFF 		bl	GraphicLCDIntf_Write8
 242              	.LVL30:
 243              	.LBE159:
 244              	.LBE158:
 245              	.LBB160:
 246              	.LBB161:
 247 00d0 6F21     		movs	r1, #111
 248 00d2 0120     		movs	r0, #1
 249 00d4 FFF7FEFF 		bl	GraphicLCDIntf_Write8
 250              	.LVL31:
 251              	.LBE161:
 252              	.LBE160:
 253              	.LBB162:
 254              	.LBB163:
 255 00d8 4621     		movs	r1, #70
 256 00da 0120     		movs	r0, #1
 257 00dc FFF7FEFF 		bl	GraphicLCDIntf_Write8
 258              	.LVL32:
 259              	.LBE163:
 260              	.LBE162:
 261              	.LBB164:
 262              	.LBB165:
  37:uGUI_Driver/ugui_SSD1963.c **** }
 263              		.loc 1 37 0
 264 00e0 B021     		movs	r1, #176
 265 00e2 0020     		movs	r0, #0
 266 00e4 FFF7FEFF 		bl	GraphicLCDIntf_Write8
 267              	.LVL33:
 268              	.LBE165:
 269              	.LBE164:
 270              	.LBB166:
 271              	.LBB167:
  42:uGUI_Driver/ugui_SSD1963.c **** }
 272              		.loc 1 42 0
 273 00e8 2721     		movs	r1, #39
 274 00ea 0120     		movs	r0, #1
 275 00ec FFF7FEFF 		bl	GraphicLCDIntf_Write8
 276              	.LVL34:
 277              	.LBE167:
 278              	.LBE166:
 279              	.LBB168:
 280              	.LBB169:
 281 00f0 0021     		movs	r1, #0
 282 00f2 0120     		movs	r0, #1
 283 00f4 FFF7FEFF 		bl	GraphicLCDIntf_Write8
 284              	.LVL35:
 285              	.LBE169:
 286              	.LBE168:
 287              	.LBB170:
 288              	.LBB171:
 289 00f8 0321     		movs	r1, #3
 290 00fa 0120     		movs	r0, #1
 291 00fc FFF7FEFF 		bl	GraphicLCDIntf_Write8
ARM GAS  C:\Users\afne7\AppData\Local\Temp\ccufBIIM.s 			page 8


 292              	.LVL36:
 293              	.LBE171:
 294              	.LBE170:
 295              	.LBB172:
 296              	.LBB173:
 297 0100 1F21     		movs	r1, #31
 298 0102 0120     		movs	r0, #1
 299 0104 FFF7FEFF 		bl	GraphicLCDIntf_Write8
 300              	.LVL37:
 301              	.LBE173:
 302              	.LBE172:
 303              	.LBB174:
 304              	.LBB175:
 305 0108 0121     		movs	r1, #1
 306 010a 0846     		mov	r0, r1
 307 010c FFF7FEFF 		bl	GraphicLCDIntf_Write8
 308              	.LVL38:
 309              	.LBE175:
 310              	.LBE174:
 311              	.LBB176:
 312              	.LBB177:
 313 0110 DF21     		movs	r1, #223
 314 0112 0120     		movs	r0, #1
 315 0114 FFF7FEFF 		bl	GraphicLCDIntf_Write8
 316              	.LVL39:
 317              	.LBE177:
 318              	.LBE176:
 319              	.LBB178:
 320              	.LBB179:
 321 0118 0021     		movs	r1, #0
 322 011a 0120     		movs	r0, #1
 323 011c FFF7FEFF 		bl	GraphicLCDIntf_Write8
 324              	.LVL40:
 325              	.LBE179:
 326              	.LBE178:
 327              	.LBB180:
 328              	.LBB181:
  37:uGUI_Driver/ugui_SSD1963.c **** }
 329              		.loc 1 37 0
 330 0120 B421     		movs	r1, #180
 331 0122 0020     		movs	r0, #0
 332 0124 FFF7FEFF 		bl	GraphicLCDIntf_Write8
 333              	.LVL41:
 334              	.LBE181:
 335              	.LBE180:
 336              	.LBB182:
 337              	.LBB183:
  42:uGUI_Driver/ugui_SSD1963.c **** }
 338              		.loc 1 42 0
 339 0128 0321     		movs	r1, #3
 340 012a 0120     		movs	r0, #1
 341 012c FFF7FEFF 		bl	GraphicLCDIntf_Write8
 342              	.LVL42:
 343              	.LBE183:
 344              	.LBE182:
 345              	.LBB184:
 346              	.LBB185:
ARM GAS  C:\Users\afne7\AppData\Local\Temp\ccufBIIM.s 			page 9


 347 0130 A021     		movs	r1, #160
 348 0132 0120     		movs	r0, #1
 349 0134 FFF7FEFF 		bl	GraphicLCDIntf_Write8
 350              	.LVL43:
 351              	.LBE185:
 352              	.LBE184:
 353              	.LBB186:
 354              	.LBB187:
 355 0138 0021     		movs	r1, #0
 356 013a 0120     		movs	r0, #1
 357 013c FFF7FEFF 		bl	GraphicLCDIntf_Write8
 358              	.LVL44:
 359              	.LBE187:
 360              	.LBE186:
 361              	.LBB188:
 362              	.LBB189:
 363 0140 2E21     		movs	r1, #46
 364 0142 0120     		movs	r0, #1
 365 0144 FFF7FEFF 		bl	GraphicLCDIntf_Write8
 366              	.LVL45:
 367              	.LBE189:
 368              	.LBE188:
 369              	.LBB190:
 370              	.LBB191:
 371 0148 3021     		movs	r1, #48
 372 014a 0120     		movs	r0, #1
 373 014c FFF7FEFF 		bl	GraphicLCDIntf_Write8
 374              	.LVL46:
 375              	.LBE191:
 376              	.LBE190:
 377              	.LBB192:
 378              	.LBB193:
 379 0150 0021     		movs	r1, #0
 380 0152 0120     		movs	r0, #1
 381 0154 FFF7FEFF 		bl	GraphicLCDIntf_Write8
 382              	.LVL47:
 383              	.LBE193:
 384              	.LBE192:
 385              	.LBB194:
 386              	.LBB195:
 387 0158 0F21     		movs	r1, #15
 388 015a 0120     		movs	r0, #1
 389 015c FFF7FEFF 		bl	GraphicLCDIntf_Write8
 390              	.LVL48:
 391              	.LBE195:
 392              	.LBE194:
 393              	.LBB196:
 394              	.LBB197:
 395 0160 0021     		movs	r1, #0
 396 0162 0120     		movs	r0, #1
 397 0164 FFF7FEFF 		bl	GraphicLCDIntf_Write8
 398              	.LVL49:
 399              	.LBE197:
 400              	.LBE196:
 401              	.LBB198:
 402              	.LBB199:
  37:uGUI_Driver/ugui_SSD1963.c **** }
ARM GAS  C:\Users\afne7\AppData\Local\Temp\ccufBIIM.s 			page 10


 403              		.loc 1 37 0
 404 0168 B621     		movs	r1, #182
 405 016a 0020     		movs	r0, #0
 406 016c FFF7FEFF 		bl	GraphicLCDIntf_Write8
 407              	.LVL50:
 408              	.LBE199:
 409              	.LBE198:
 410              	.LBB200:
 411              	.LBB201:
  42:uGUI_Driver/ugui_SSD1963.c **** }
 412              		.loc 1 42 0
 413 0170 0221     		movs	r1, #2
 414 0172 0120     		movs	r0, #1
 415 0174 FFF7FEFF 		bl	GraphicLCDIntf_Write8
 416              	.LVL51:
 417              	.LBE201:
 418              	.LBE200:
 419              	.LBB202:
 420              	.LBB203:
 421 0178 0D21     		movs	r1, #13
 422 017a 0120     		movs	r0, #1
 423 017c FFF7FEFF 		bl	GraphicLCDIntf_Write8
 424              	.LVL52:
 425              	.LBE203:
 426              	.LBE202:
 427              	.LBB204:
 428              	.LBB205:
 429 0180 0021     		movs	r1, #0
 430 0182 0120     		movs	r0, #1
 431 0184 FFF7FEFF 		bl	GraphicLCDIntf_Write8
 432              	.LVL53:
 433              	.LBE205:
 434              	.LBE204:
 435              	.LBB206:
 436              	.LBB207:
 437 0188 1021     		movs	r1, #16
 438 018a 0120     		movs	r0, #1
 439 018c FFF7FEFF 		bl	GraphicLCDIntf_Write8
 440              	.LVL54:
 441              	.LBE207:
 442              	.LBE206:
 443              	.LBB208:
 444              	.LBB209:
 445 0190 1021     		movs	r1, #16
 446 0192 0120     		movs	r0, #1
 447 0194 FFF7FEFF 		bl	GraphicLCDIntf_Write8
 448              	.LVL55:
 449              	.LBE209:
 450              	.LBE208:
 451              	.LBB210:
 452              	.LBB211:
 453 0198 0021     		movs	r1, #0
 454 019a 0120     		movs	r0, #1
 455 019c FFF7FEFF 		bl	GraphicLCDIntf_Write8
 456              	.LVL56:
 457              	.LBE211:
 458              	.LBE210:
ARM GAS  C:\Users\afne7\AppData\Local\Temp\ccufBIIM.s 			page 11


 459              	.LBB212:
 460              	.LBB213:
 461 01a0 1921     		movs	r1, #25
 462 01a2 0120     		movs	r0, #1
 463 01a4 FFF7FEFF 		bl	GraphicLCDIntf_Write8
 464              	.LVL57:
 465              	.LBE213:
 466              	.LBE212:
 467              	.LBB214:
 468              	.LBB215:
  37:uGUI_Driver/ugui_SSD1963.c **** }
 469              		.loc 1 37 0
 470 01a8 3621     		movs	r1, #54
 471 01aa 0020     		movs	r0, #0
 472 01ac FFF7FEFF 		bl	GraphicLCDIntf_Write8
 473              	.LVL58:
 474              	.LBE215:
 475              	.LBE214:
 476              	.LBB216:
 477              	.LBB217:
  42:uGUI_Driver/ugui_SSD1963.c **** }
 478              		.loc 1 42 0
 479 01b0 0021     		movs	r1, #0
 480 01b2 0120     		movs	r0, #1
 481 01b4 FFF7FEFF 		bl	GraphicLCDIntf_Write8
 482              	.LVL59:
 483              	.LBE217:
 484              	.LBE216:
 485              	.LBB218:
 486              	.LBB219:
  37:uGUI_Driver/ugui_SSD1963.c **** }
 487              		.loc 1 37 0
 488 01b8 F021     		movs	r1, #240
 489 01ba 0020     		movs	r0, #0
 490 01bc FFF7FEFF 		bl	GraphicLCDIntf_Write8
 491              	.LVL60:
 492              	.LBE219:
 493              	.LBE218:
 494              	.LBB220:
 495              	.LBB221:
  42:uGUI_Driver/ugui_SSD1963.c **** }
 496              		.loc 1 42 0
 497 01c0 0021     		movs	r1, #0
 498 01c2 0120     		movs	r0, #1
 499 01c4 FFF7FEFF 		bl	GraphicLCDIntf_Write8
 500              	.LVL61:
 501              	.LBE221:
 502              	.LBE220:
  89:uGUI_Driver/ugui_SSD1963.c ****     Display_Reset();                    //Software reset
  90:uGUI_Driver/ugui_SSD1963.c ****        
  91:uGUI_Driver/ugui_SSD1963.c ****     Display_WriteCommand(0xe6);   		//SET PCLK Freq = 33.26MHz
  92:uGUI_Driver/ugui_SSD1963.c ****     Display_WriteData(0x04);            
  93:uGUI_Driver/ugui_SSD1963.c ****     Display_WriteData(0x6f);            
  94:uGUI_Driver/ugui_SSD1963.c ****     Display_WriteData(0x46);
  95:uGUI_Driver/ugui_SSD1963.c ****     
  96:uGUI_Driver/ugui_SSD1963.c ****     Display_WriteCommand(0xb0);		    //SET LCD MODE 
  97:uGUI_Driver/ugui_SSD1963.c ****     Display_WriteData(0x27);			//SET TFT 24-Bit MODE / Sync pulse active Low & Rising Edge
ARM GAS  C:\Users\afne7\AppData\Local\Temp\ccufBIIM.s 			page 12


  98:uGUI_Driver/ugui_SSD1963.c ****     Display_WriteData(0x00);			//SET TFT MODE / SET Hsync + Vsync + DE MODE
  99:uGUI_Driver/ugui_SSD1963.c ****     Display_WriteData((HDP>>8)&0x00ff); //SET HDP Horizontal size = Display Width - 1 HightByte = 7
 100:uGUI_Driver/ugui_SSD1963.c ****     Display_WriteData(HDP & 0x00ff);    //SET HPS Horizontal size = Display Width - 1 LowByte
 101:uGUI_Driver/ugui_SSD1963.c ****     Display_WriteData((VDP>>8)&0x00ff); //SET VDP Vertical size = Display Height - 1 HightByte  = 4
 102:uGUI_Driver/ugui_SSD1963.c ****     Display_WriteData(VDP & 0x00ff);	//SET VPS Vertical size = Display Height - 1 LowByte
 103:uGUI_Driver/ugui_SSD1963.c ****     Display_WriteData(0x00);			//SET Even/Odd line RGB sequence = RGB 
 104:uGUI_Driver/ugui_SSD1963.c **** 
 105:uGUI_Driver/ugui_SSD1963.c ****     Display_WriteCommand(0xb4);         //SET HBP,
 106:uGUI_Driver/ugui_SSD1963.c ****     Display_WriteData(0x03);            //SET HT Hsync Total = 928 HightByte
 107:uGUI_Driver/ugui_SSD1963.c ****     Display_WriteData(0xa0);            //SET HT Hsync Total = 928 LowByte
 108:uGUI_Driver/ugui_SSD1963.c ****     Display_WriteData(0x00);            //SET HPS  0 HightByte
 109:uGUI_Driver/ugui_SSD1963.c ****     Display_WriteData(0x2e);            //SET HPS 46 LowByte
 110:uGUI_Driver/ugui_SSD1963.c ****     Display_WriteData(0x30);            //SET HPW 48 
 111:uGUI_Driver/ugui_SSD1963.c ****     Display_WriteData(0x00);            //SET LPS Hsync pulse start position  0 HighByte
 112:uGUI_Driver/ugui_SSD1963.c ****     Display_WriteData(0x0f);            //SET LPS Hsync pulse start position 15 LowByte
 113:uGUI_Driver/ugui_SSD1963.c ****     Display_WriteData(0x00);            //SET LPSPP Hsync pulse subpixel start position
 114:uGUI_Driver/ugui_SSD1963.c ****     
 115:uGUI_Driver/ugui_SSD1963.c ****     Display_WriteCommand(0xb6);         //SET VBP,
 116:uGUI_Driver/ugui_SSD1963.c ****     Display_WriteData(0x02);            //SET VT Vsync total = 525 HighByte
 117:uGUI_Driver/ugui_SSD1963.c ****     Display_WriteData(0x0d);            //SET VT Vsync total = 525 LowByte
 118:uGUI_Driver/ugui_SSD1963.c ****     Display_WriteData(0x00);            //SET VPS  0 HighByte
 119:uGUI_Driver/ugui_SSD1963.c ****     Display_WriteData(0x10);            //SET VPS 16 LowByte
 120:uGUI_Driver/ugui_SSD1963.c ****     Display_WriteData(0x10);            //SET VPW Vsync pulse 16 Byte
 121:uGUI_Driver/ugui_SSD1963.c ****     Display_WriteData(0x00);            //SET FPS Vsync pulse start position  0 HighByte
 122:uGUI_Driver/ugui_SSD1963.c ****     Display_WriteData(0x19);            //SET FPS Vsync pulse start position 25 LowByte 
 123:uGUI_Driver/ugui_SSD1963.c ****     
 124:uGUI_Driver/ugui_SSD1963.c ****     Display_WriteCommand(0x36);
 125:uGUI_Driver/ugui_SSD1963.c ****     Display_WriteData(0x00);	        //SET rotation
 126:uGUI_Driver/ugui_SSD1963.c ****     
 127:uGUI_Driver/ugui_SSD1963.c ****     Display_WriteCommand(0xf0);
 128:uGUI_Driver/ugui_SSD1963.c ****     Display_WriteData(0x00);	        //SET pixel data I/F format=8bit
 129:uGUI_Driver/ugui_SSD1963.c ****     
 130:uGUI_Driver/ugui_SSD1963.c ****     CyDelay(5);
 503              		.loc 1 130 0
 504 01c8 0520     		movs	r0, #5
 505 01ca FFF7FEFF 		bl	CyDelay
 506              	.LVL62:
 507              	.LBB222:
 508              	.LBB223:
  37:uGUI_Driver/ugui_SSD1963.c **** }
 509              		.loc 1 37 0
 510 01ce 2921     		movs	r1, #41
 511 01d0 0020     		movs	r0, #0
 512 01d2 FFF7FEFF 		bl	GraphicLCDIntf_Write8
 513              	.LVL63:
 514              	.LBE223:
 515              	.LBE222:
 131:uGUI_Driver/ugui_SSD1963.c ****     
 132:uGUI_Driver/ugui_SSD1963.c ****     Display_WriteCommand(0x29);		//SET display on
 133:uGUI_Driver/ugui_SSD1963.c ****     CyDelay(10);
 516              		.loc 1 133 0
 517 01d6 0A20     		movs	r0, #10
 518 01d8 FFF7FEFF 		bl	CyDelay
 519              	.LVL64:
 134:uGUI_Driver/ugui_SSD1963.c ****    
 135:uGUI_Driver/ugui_SSD1963.c ****     // Initialize global structure and set PSET to this.PSET. 
 136:uGUI_Driver/ugui_SSD1963.c ****     UG_Init(&gui1963, Display_PSet, DISPLAY_WIDTH, DISPLAY_HEIGHT); 
ARM GAS  C:\Users\afne7\AppData\Local\Temp\ccufBIIM.s 			page 13


 520              		.loc 1 136 0
 521 01dc 4FF4F073 		mov	r3, #480
 522 01e0 4FF44872 		mov	r2, #800
 523 01e4 0849     		ldr	r1, .L5
 524 01e6 0948     		ldr	r0, .L5+4
 525 01e8 FFF7FEFF 		bl	UG_Init
 526              	.LVL65:
 137:uGUI_Driver/ugui_SSD1963.c ****     
 138:uGUI_Driver/ugui_SSD1963.c ****     // Register acceleratos.
 139:uGUI_Driver/ugui_SSD1963.c ****     UG_DriverRegister(DRIVER_FILL_FRAME, (void*)HW_FillFrame);
 527              		.loc 1 139 0
 528 01ec 0849     		ldr	r1, .L5+8
 529 01ee 0120     		movs	r0, #1
 530 01f0 FFF7FEFF 		bl	UG_DriverRegister
 531              	.LVL66:
 140:uGUI_Driver/ugui_SSD1963.c ****     UG_DriverRegister(DRIVER_DRAW_LINE, (void*)HW_DrawLine);
 532              		.loc 1 140 0
 533 01f4 0749     		ldr	r1, .L5+12
 534 01f6 0020     		movs	r0, #0
 535 01f8 FFF7FEFF 		bl	UG_DriverRegister
 536              	.LVL67:
 141:uGUI_Driver/ugui_SSD1963.c ****     UG_DriverRegister(DRIVER_DRAW_IMAGE, (void*)HW_DrawImage);
 537              		.loc 1 141 0
 538 01fc 0649     		ldr	r1, .L5+16
 539 01fe 0320     		movs	r0, #3
 540 0200 FFF7FEFF 		bl	UG_DriverRegister
 541              	.LVL68:
 542 0204 10BD     		pop	{r4, pc}
 543              	.LVL69:
 544              	.L6:
 545 0206 00BF     		.align	2
 546              	.L5:
 547 0208 00000000 		.word	Display_PSet
 548 020c 00000000 		.word	gui1963
 549 0210 00000000 		.word	HW_FillFrame
 550 0214 00000000 		.word	HW_DrawLine
 551 0218 00000000 		.word	HW_DrawImage
 552              		.cfi_endproc
 553              	.LFE67:
 554              		.size	Display_Init, .-Display_Init
 555              		.section	.text.Display_WindowSet,"ax",%progbits
 556              		.align	2
 557              		.global	Display_WindowSet
 558              		.thumb
 559              		.thumb_func
 560              		.type	Display_WindowSet, %function
 561              	Display_WindowSet:
 562              	.LFB68:
 142:uGUI_Driver/ugui_SSD1963.c ****     
 143:uGUI_Driver/ugui_SSD1963.c **** }
 144:uGUI_Driver/ugui_SSD1963.c **** 
 145:uGUI_Driver/ugui_SSD1963.c **** void Display_WindowSet(unsigned int s_x,unsigned int e_x,unsigned int s_y,unsigned int e_y)
 146:uGUI_Driver/ugui_SSD1963.c **** {
 563              		.loc 1 146 0
 564              		.cfi_startproc
 565              		@ args = 0, pretend = 0, frame = 8
 566              		@ frame_needed = 0, uses_anonymous_args = 0
ARM GAS  C:\Users\afne7\AppData\Local\Temp\ccufBIIM.s 			page 14


 567              	.LVL70:
 568 0000 30B5     		push	{r4, r5, lr}
 569              		.cfi_def_cfa_offset 12
 570              		.cfi_offset 4, -12
 571              		.cfi_offset 5, -8
 572              		.cfi_offset 14, -4
 573 0002 83B0     		sub	sp, sp, #12
 574              		.cfi_def_cfa_offset 24
 575 0004 1546     		mov	r5, r2
 576 0006 1C46     		mov	r4, r3
 147:uGUI_Driver/ugui_SSD1963.c ****     uint8_t data[4];
 148:uGUI_Driver/ugui_SSD1963.c ****     
 149:uGUI_Driver/ugui_SSD1963.c ****     data[0] = ((s_x)>>8);                   //SET start column address
 577              		.loc 1 149 0
 578 0008 030A     		lsrs	r3, r0, #8
 579              	.LVL71:
 580 000a 8DF80430 		strb	r3, [sp, #4]
 150:uGUI_Driver/ugui_SSD1963.c ****     data[1] = (s_x);
 581              		.loc 1 150 0
 582 000e 8DF80500 		strb	r0, [sp, #5]
 151:uGUI_Driver/ugui_SSD1963.c ****     data[2] = ((e_x)>>8);			        //SET end column address
 583              		.loc 1 151 0
 584 0012 0B0A     		lsrs	r3, r1, #8
 585 0014 8DF80630 		strb	r3, [sp, #6]
 152:uGUI_Driver/ugui_SSD1963.c ****     data[3] = (e_x);
 586              		.loc 1 152 0
 587 0018 8DF80710 		strb	r1, [sp, #7]
 588              	.LVL72:
 589              	.LBB224:
 590              	.LBB225:
  37:uGUI_Driver/ugui_SSD1963.c **** }
 591              		.loc 1 37 0
 592 001c 2A21     		movs	r1, #42
 593              	.LVL73:
 594 001e 0020     		movs	r0, #0
 595              	.LVL74:
 596 0020 FFF7FEFF 		bl	GraphicLCDIntf_Write8
 597              	.LVL75:
 598              	.LBE225:
 599              	.LBE224:
 600              	.LBB226:
 601              	.LBB227:
  47:uGUI_Driver/ugui_SSD1963.c **** }
 602              		.loc 1 47 0
 603 0024 0422     		movs	r2, #4
 604 0026 0DEB0201 		add	r1, sp, r2
 605 002a 0120     		movs	r0, #1
 606 002c FFF7FEFF 		bl	GraphicLCDIntf_WriteM8
 607              	.LVL76:
 608              	.LBE227:
 609              	.LBE226:
 153:uGUI_Driver/ugui_SSD1963.c **** 	Display_WriteCommand(0x2a);		        //SET column address
 154:uGUI_Driver/ugui_SSD1963.c ****     Display_WriteMultiData(data, 4);
 155:uGUI_Driver/ugui_SSD1963.c **** 
 156:uGUI_Driver/ugui_SSD1963.c **** 	
 157:uGUI_Driver/ugui_SSD1963.c ****     data[0] = ((s_y)>>8);                   //SET start row address
 610              		.loc 1 157 0
ARM GAS  C:\Users\afne7\AppData\Local\Temp\ccufBIIM.s 			page 15


 611 0030 2B0A     		lsrs	r3, r5, #8
 612 0032 8DF80430 		strb	r3, [sp, #4]
 158:uGUI_Driver/ugui_SSD1963.c ****     data[1] = (s_y);
 613              		.loc 1 158 0
 614 0036 8DF80550 		strb	r5, [sp, #5]
 159:uGUI_Driver/ugui_SSD1963.c ****     data[2] = ((e_y)>>8);			        //SET end row address
 615              		.loc 1 159 0
 616 003a 230A     		lsrs	r3, r4, #8
 617 003c 8DF80630 		strb	r3, [sp, #6]
 160:uGUI_Driver/ugui_SSD1963.c ****     data[3] = (e_y);
 618              		.loc 1 160 0
 619 0040 8DF80740 		strb	r4, [sp, #7]
 620              	.LVL77:
 621              	.LBB228:
 622              	.LBB229:
  37:uGUI_Driver/ugui_SSD1963.c **** }
 623              		.loc 1 37 0
 624 0044 2B21     		movs	r1, #43
 625 0046 0020     		movs	r0, #0
 626 0048 FFF7FEFF 		bl	GraphicLCDIntf_Write8
 627              	.LVL78:
 628              	.LBE229:
 629              	.LBE228:
 630              	.LBB230:
 631              	.LBB231:
  47:uGUI_Driver/ugui_SSD1963.c **** }
 632              		.loc 1 47 0
 633 004c 0422     		movs	r2, #4
 634 004e 0DEB0201 		add	r1, sp, r2
 635 0052 0120     		movs	r0, #1
 636 0054 FFF7FEFF 		bl	GraphicLCDIntf_WriteM8
 637              	.LVL79:
 638              	.LBE231:
 639              	.LBE230:
 161:uGUI_Driver/ugui_SSD1963.c **** 	Display_WriteCommand(0x2b);		        //SET row address
 162:uGUI_Driver/ugui_SSD1963.c ****     Display_WriteMultiData(data, 4);
 163:uGUI_Driver/ugui_SSD1963.c **** }
 640              		.loc 1 163 0
 641 0058 03B0     		add	sp, sp, #12
 642              		.cfi_def_cfa_offset 12
 643              		@ sp needed
 644 005a 30BD     		pop	{r4, r5, pc}
 645              		.cfi_endproc
 646              	.LFE68:
 647              		.size	Display_WindowSet, .-Display_WindowSet
 648              		.section	.text.Display_PSet,"ax",%progbits
 649              		.align	2
 650              		.global	Display_PSet
 651              		.thumb
 652              		.thumb_func
 653              		.type	Display_PSet, %function
 654              	Display_PSet:
 655              	.LFB69:
 164:uGUI_Driver/ugui_SSD1963.c **** 
 165:uGUI_Driver/ugui_SSD1963.c **** void Display_PSet(UG_S16 x, UG_S16 y, UG_COLOR c)
 166:uGUI_Driver/ugui_SSD1963.c **** {    
 656              		.loc 1 166 0
ARM GAS  C:\Users\afne7\AppData\Local\Temp\ccufBIIM.s 			page 16


 657              		.cfi_startproc
 658              		@ args = 0, pretend = 0, frame = 8
 659              		@ frame_needed = 0, uses_anonymous_args = 0
 660              	.LVL80:
 661 0000 00B5     		push	{lr}
 662              		.cfi_def_cfa_offset 4
 663              		.cfi_offset 14, -4
 664 0002 83B0     		sub	sp, sp, #12
 665              		.cfi_def_cfa_offset 16
 167:uGUI_Driver/ugui_SSD1963.c ****     uint8_t data[3];
 168:uGUI_Driver/ugui_SSD1963.c ****     
 169:uGUI_Driver/ugui_SSD1963.c ****     data[0] = (c >> 16);
 666              		.loc 1 169 0
 667 0004 130C     		lsrs	r3, r2, #16
 668 0006 8DF80430 		strb	r3, [sp, #4]
 170:uGUI_Driver/ugui_SSD1963.c ****     data[1] = (c >> 8);
 669              		.loc 1 170 0
 670 000a 130A     		lsrs	r3, r2, #8
 671 000c 8DF80530 		strb	r3, [sp, #5]
 171:uGUI_Driver/ugui_SSD1963.c ****     data[2] = (c);
 672              		.loc 1 171 0
 673 0010 8DF80620 		strb	r2, [sp, #6]
 172:uGUI_Driver/ugui_SSD1963.c ****     
 173:uGUI_Driver/ugui_SSD1963.c ****     if((x < 0) ||(x >= DISPLAY_WIDTH) || (y < 0) || (y >= DISPLAY_HEIGHT)) return;
 674              		.loc 1 173 0
 675 0014 83B2     		uxth	r3, r0
 676 0016 B3F5487F 		cmp	r3, #800
 677 001a 12D2     		bcs	.L9
 678              		.loc 1 173 0 is_stmt 0 discriminator 1
 679 001c 0029     		cmp	r1, #0
 680 001e 10DB     		blt	.L9
 681              		.loc 1 173 0 discriminator 2
 682 0020 B1F5F07F 		cmp	r1, #480
 683 0024 0DDA     		bge	.L9
 684 0026 0A46     		mov	r2, r1
 685              	.LVL81:
 174:uGUI_Driver/ugui_SSD1963.c ****  
 175:uGUI_Driver/ugui_SSD1963.c ****     Display_WindowSet(x, x + 1, y, y + 1);    
 686              		.loc 1 175 0 is_stmt 1
 687 0028 4B1C     		adds	r3, r1, #1
 688 002a 411C     		adds	r1, r0, #1
 689              	.LVL82:
 690 002c FFF7FEFF 		bl	Display_WindowSet
 691              	.LVL83:
 692              	.LBB232:
 693              	.LBB233:
  37:uGUI_Driver/ugui_SSD1963.c **** }
 694              		.loc 1 37 0
 695 0030 2C21     		movs	r1, #44
 696 0032 0020     		movs	r0, #0
 697 0034 FFF7FEFF 		bl	GraphicLCDIntf_Write8
 698              	.LVL84:
 699              	.LBE233:
 700              	.LBE232:
 701              	.LBB234:
 702              	.LBB235:
  47:uGUI_Driver/ugui_SSD1963.c **** }
ARM GAS  C:\Users\afne7\AppData\Local\Temp\ccufBIIM.s 			page 17


 703              		.loc 1 47 0
 704 0038 0322     		movs	r2, #3
 705 003a 01A9     		add	r1, sp, #4
 706              	.LVL85:
 707 003c 0120     		movs	r0, #1
 708 003e FFF7FEFF 		bl	GraphicLCDIntf_WriteM8
 709              	.LVL86:
 710              	.L9:
 711              	.LBE235:
 712              	.LBE234:
 176:uGUI_Driver/ugui_SSD1963.c ****     Display_WriteCommand(0x2c);
 177:uGUI_Driver/ugui_SSD1963.c ****     Display_WriteMultiData(data, 3);
 178:uGUI_Driver/ugui_SSD1963.c **** 
 179:uGUI_Driver/ugui_SSD1963.c **** }
 713              		.loc 1 179 0
 714 0042 03B0     		add	sp, sp, #12
 715              		.cfi_def_cfa_offset 4
 716              		@ sp needed
 717 0044 5DF804FB 		ldr	pc, [sp], #4
 718              		.cfi_endproc
 719              	.LFE69:
 720              		.size	Display_PSet, .-Display_PSet
 721              		.section	.text.HW_FillFrame,"ax",%progbits
 722              		.align	2
 723              		.global	HW_FillFrame
 724              		.thumb
 725              		.thumb_func
 726              		.type	HW_FillFrame, %function
 727              	HW_FillFrame:
 728              	.LFB70:
 180:uGUI_Driver/ugui_SSD1963.c **** 
 181:uGUI_Driver/ugui_SSD1963.c **** UG_RESULT HW_FillFrame(UG_S16 x1, UG_S16 y1, UG_S16 x2, UG_S16 y2, UG_COLOR c)
 182:uGUI_Driver/ugui_SSD1963.c **** {
 729              		.loc 1 182 0
 730              		.cfi_startproc
 731              		@ args = 4, pretend = 0, frame = 8
 732              		@ frame_needed = 0, uses_anonymous_args = 0
 733              	.LVL87:
 734 0000 2DE9F041 		push	{r4, r5, r6, r7, r8, lr}
 735              		.cfi_def_cfa_offset 24
 736              		.cfi_offset 4, -24
 737              		.cfi_offset 5, -20
 738              		.cfi_offset 6, -16
 739              		.cfi_offset 7, -12
 740              		.cfi_offset 8, -8
 741              		.cfi_offset 14, -4
 742 0004 82B0     		sub	sp, sp, #8
 743              		.cfi_def_cfa_offset 32
 744 0006 089C     		ldr	r4, [sp, #32]
 183:uGUI_Driver/ugui_SSD1963.c ****     uint16 loopx, loopy;
 184:uGUI_Driver/ugui_SSD1963.c ****     uint8_t data[3];
 185:uGUI_Driver/ugui_SSD1963.c ****     
 186:uGUI_Driver/ugui_SSD1963.c ****     data[0] = (c >> 16);
 745              		.loc 1 186 0
 746 0008 250C     		lsrs	r5, r4, #16
 747 000a 8DF80450 		strb	r5, [sp, #4]
 187:uGUI_Driver/ugui_SSD1963.c ****     data[1] = (c >> 8);
ARM GAS  C:\Users\afne7\AppData\Local\Temp\ccufBIIM.s 			page 18


 748              		.loc 1 187 0
 749 000e 250A     		lsrs	r5, r4, #8
 750 0010 8DF80550 		strb	r5, [sp, #5]
 188:uGUI_Driver/ugui_SSD1963.c ****     data[2] = (c);
 751              		.loc 1 188 0
 752 0014 8DF80640 		strb	r4, [sp, #6]
 189:uGUI_Driver/ugui_SSD1963.c ****     
 190:uGUI_Driver/ugui_SSD1963.c ****     if((x1 < 0) ||(x1 >= DISPLAY_WIDTH) || (y1 < 0) || (y1 >= DISPLAY_HEIGHT)) return UG_RESULT_FAI
 753              		.loc 1 190 0
 754 0018 86B2     		uxth	r6, r0
 755 001a B6F5487F 		cmp	r6, #800
 756 001e 2DD2     		bcs	.L19
 757              		.loc 1 190 0 is_stmt 0 discriminator 2
 758 0020 0029     		cmp	r1, #0
 759 0022 2EDB     		blt	.L20
 760              		.loc 1 190 0 discriminator 4
 761 0024 B1F5F07F 		cmp	r1, #480
 762 0028 2EDA     		bge	.L21
 191:uGUI_Driver/ugui_SSD1963.c ****     if((x2 < 0) ||(x2 >= DISPLAY_WIDTH) || (y2 < 0) || (y2 >= DISPLAY_HEIGHT)) return UG_RESULT_FAI
 763              		.loc 1 191 0 is_stmt 1
 764 002a 94B2     		uxth	r4, r2
 765 002c B4F5487F 		cmp	r4, #800
 766 0030 2DD2     		bcs	.L22
 767              		.loc 1 191 0 is_stmt 0 discriminator 2
 768 0032 002B     		cmp	r3, #0
 769 0034 2EDB     		blt	.L23
 770              		.loc 1 191 0 discriminator 4
 771 0036 B3F5F07F 		cmp	r3, #480
 772 003a 2EDA     		bge	.L24
 773 003c 1D46     		mov	r5, r3
 774 003e 9046     		mov	r8, r2
 775 0040 0F46     		mov	r7, r1
 192:uGUI_Driver/ugui_SSD1963.c **** 
 193:uGUI_Driver/ugui_SSD1963.c ****     Display_WindowSet(x1,x2,y1,y2);
 776              		.loc 1 193 0 is_stmt 1
 777 0042 0A46     		mov	r2, r1
 778              	.LVL88:
 779 0044 4146     		mov	r1, r8
 780              	.LVL89:
 781 0046 FFF7FEFF 		bl	Display_WindowSet
 782              	.LVL90:
 783              	.LBB236:
 784              	.LBB237:
  37:uGUI_Driver/ugui_SSD1963.c **** }
 785              		.loc 1 37 0
 786 004a 2C21     		movs	r1, #44
 787 004c 0020     		movs	r0, #0
 788 004e FFF7FEFF 		bl	GraphicLCDIntf_Write8
 789              	.LVL91:
 790              	.LBE237:
 791              	.LBE236:
 194:uGUI_Driver/ugui_SSD1963.c **** 
 195:uGUI_Driver/ugui_SSD1963.c ****     Display_WriteCommand(0x2c);            
 196:uGUI_Driver/ugui_SSD1963.c ****     for (loopx = x1; loopx < x2 + 1; loopx++)
 792              		.loc 1 196 0
 793 0052 0DE0     		b	.L15
 794              	.LVL92:
ARM GAS  C:\Users\afne7\AppData\Local\Temp\ccufBIIM.s 			page 19


 795              	.L18:
 197:uGUI_Driver/ugui_SSD1963.c ****     {
 198:uGUI_Driver/ugui_SSD1963.c ****         for (loopy = y1; loopy < y2 + 1; loopy++)
 796              		.loc 1 198 0
 797 0054 BCB2     		uxth	r4, r7
 798              	.LVL93:
 799 0056 06E0     		b	.L16
 800              	.L17:
 801              	.LVL94:
 802              	.LBB238:
 803              	.LBB239:
  47:uGUI_Driver/ugui_SSD1963.c **** }
 804              		.loc 1 47 0
 805 0058 0322     		movs	r2, #3
 806 005a 01A9     		add	r1, sp, #4
 807              	.LVL95:
 808 005c 0120     		movs	r0, #1
 809 005e FFF7FEFF 		bl	GraphicLCDIntf_WriteM8
 810              	.LVL96:
 811              	.LBE239:
 812              	.LBE238:
 813              		.loc 1 198 0
 814 0062 0134     		adds	r4, r4, #1
 815              	.LVL97:
 816 0064 A4B2     		uxth	r4, r4
 817              	.LVL98:
 818              	.L16:
 819              		.loc 1 198 0 is_stmt 0 discriminator 1
 820 0066 681C     		adds	r0, r5, #1
 821 0068 8442     		cmp	r4, r0
 822 006a F5DB     		blt	.L17
 196:uGUI_Driver/ugui_SSD1963.c ****     {
 823              		.loc 1 196 0 is_stmt 1 discriminator 2
 824 006c 0136     		adds	r6, r6, #1
 825              	.LVL99:
 826 006e B6B2     		uxth	r6, r6
 827              	.LVL100:
 828              	.L15:
 196:uGUI_Driver/ugui_SSD1963.c ****     {
 829              		.loc 1 196 0 is_stmt 0 discriminator 1
 830 0070 08F10103 		add	r3, r8, #1
 831 0074 9E42     		cmp	r6, r3
 832 0076 EDDB     		blt	.L18
 199:uGUI_Driver/ugui_SSD1963.c ****         {
 200:uGUI_Driver/ugui_SSD1963.c ****             Display_WriteMultiData(data, 3);
 201:uGUI_Driver/ugui_SSD1963.c ****         }
 202:uGUI_Driver/ugui_SSD1963.c ****     } 
 203:uGUI_Driver/ugui_SSD1963.c ****     
 204:uGUI_Driver/ugui_SSD1963.c ****     return UG_RESULT_OK;
 833              		.loc 1 204 0 is_stmt 1
 834 0078 0020     		movs	r0, #0
 835 007a 10E0     		b	.L14
 836              	.LVL101:
 837              	.L19:
 190:uGUI_Driver/ugui_SSD1963.c ****     if((x2 < 0) ||(x2 >= DISPLAY_WIDTH) || (y2 < 0) || (y2 >= DISPLAY_HEIGHT)) return UG_RESULT_FAI
 838              		.loc 1 190 0
 839 007c 4FF0FF30 		mov	r0, #-1
ARM GAS  C:\Users\afne7\AppData\Local\Temp\ccufBIIM.s 			page 20


 840              	.LVL102:
 841 0080 0DE0     		b	.L14
 842              	.LVL103:
 843              	.L20:
 844 0082 4FF0FF30 		mov	r0, #-1
 845              	.LVL104:
 846 0086 0AE0     		b	.L14
 847              	.LVL105:
 848              	.L21:
 849 0088 4FF0FF30 		mov	r0, #-1
 850              	.LVL106:
 851 008c 07E0     		b	.L14
 852              	.LVL107:
 853              	.L22:
 191:uGUI_Driver/ugui_SSD1963.c **** 
 854              		.loc 1 191 0
 855 008e 4FF0FF30 		mov	r0, #-1
 856              	.LVL108:
 857 0092 04E0     		b	.L14
 858              	.LVL109:
 859              	.L23:
 860 0094 4FF0FF30 		mov	r0, #-1
 861              	.LVL110:
 862 0098 01E0     		b	.L14
 863              	.LVL111:
 864              	.L24:
 865 009a 4FF0FF30 		mov	r0, #-1
 866              	.LVL112:
 867              	.L14:
 205:uGUI_Driver/ugui_SSD1963.c **** }
 868              		.loc 1 205 0
 869 009e 02B0     		add	sp, sp, #8
 870              		.cfi_def_cfa_offset 24
 871              		@ sp needed
 872 00a0 BDE8F081 		pop	{r4, r5, r6, r7, r8, pc}
 873              		.cfi_endproc
 874              	.LFE70:
 875              		.size	HW_FillFrame, .-HW_FillFrame
 876              		.section	.text.HW_DrawLine,"ax",%progbits
 877              		.align	2
 878              		.global	HW_DrawLine
 879              		.thumb
 880              		.thumb_func
 881              		.type	HW_DrawLine, %function
 882              	HW_DrawLine:
 883              	.LFB71:
 206:uGUI_Driver/ugui_SSD1963.c **** 
 207:uGUI_Driver/ugui_SSD1963.c **** UG_RESULT HW_DrawLine( UG_S16 x1 , UG_S16 y1 , UG_S16 x2 , UG_S16 y2 , UG_COLOR c )
 208:uGUI_Driver/ugui_SSD1963.c **** {
 884              		.loc 1 208 0
 885              		.cfi_startproc
 886              		@ args = 4, pretend = 0, frame = 0
 887              		@ frame_needed = 0, uses_anonymous_args = 0
 888              	.LVL113:
 889 0000 10B5     		push	{r4, lr}
 890              		.cfi_def_cfa_offset 8
 891              		.cfi_offset 4, -8
ARM GAS  C:\Users\afne7\AppData\Local\Temp\ccufBIIM.s 			page 21


 892              		.cfi_offset 14, -4
 893 0002 82B0     		sub	sp, sp, #8
 894              		.cfi_def_cfa_offset 16
 209:uGUI_Driver/ugui_SSD1963.c ****     if((x1 < 0) ||(x1 >= DISPLAY_WIDTH) || (y1 < 0) || (y1 >= DISPLAY_HEIGHT)) return UG_RESULT_FAI
 895              		.loc 1 209 0
 896 0004 84B2     		uxth	r4, r0
 897 0006 B4F5487F 		cmp	r4, #800
 898 000a 17D2     		bcs	.L29
 899              		.loc 1 209 0 is_stmt 0 discriminator 2
 900 000c 0029     		cmp	r1, #0
 901 000e 18DB     		blt	.L30
 902              		.loc 1 209 0 discriminator 4
 903 0010 B1F5F07F 		cmp	r1, #480
 904 0014 18DA     		bge	.L31
 210:uGUI_Driver/ugui_SSD1963.c ****     if((x2 < 0) ||(x2 >= DISPLAY_WIDTH) || (y2 < 0) || (y2 >= DISPLAY_HEIGHT)) return UG_RESULT_FAI
 905              		.loc 1 210 0 is_stmt 1
 906 0016 94B2     		uxth	r4, r2
 907 0018 B4F5487F 		cmp	r4, #800
 908 001c 17D2     		bcs	.L32
 909              		.loc 1 210 0 is_stmt 0 discriminator 2
 910 001e 002B     		cmp	r3, #0
 911 0020 18DB     		blt	.L33
 912              		.loc 1 210 0 discriminator 4
 913 0022 B3F5F07F 		cmp	r3, #480
 914 0026 18DA     		bge	.L34
 211:uGUI_Driver/ugui_SSD1963.c ****     
 212:uGUI_Driver/ugui_SSD1963.c ****     // If it is a vertical or a horizontal line, draw it.
 213:uGUI_Driver/ugui_SSD1963.c ****     // If not, then use original drawline routine.
 214:uGUI_Driver/ugui_SSD1963.c ****     if ((x1 == x2) || (y1 == y2)) 
 915              		.loc 1 214 0 is_stmt 1
 916 0028 9042     		cmp	r0, r2
 917 002a 01D0     		beq	.L28
 918              		.loc 1 214 0 is_stmt 0 discriminator 1
 919 002c 9942     		cmp	r1, r3
 920 002e 17D1     		bne	.L35
 921              	.L28:
 215:uGUI_Driver/ugui_SSD1963.c ****     {
 216:uGUI_Driver/ugui_SSD1963.c ****         HW_FillFrame(x1, y1, x2, y2, c);
 922              		.loc 1 216 0 is_stmt 1
 923 0030 049C     		ldr	r4, [sp, #16]
 924 0032 0094     		str	r4, [sp]
 925 0034 FFF7FEFF 		bl	HW_FillFrame
 926              	.LVL114:
 217:uGUI_Driver/ugui_SSD1963.c ****         return UG_RESULT_OK;
 927              		.loc 1 217 0
 928 0038 0020     		movs	r0, #0
 929 003a 13E0     		b	.L27
 930              	.LVL115:
 931              	.L29:
 209:uGUI_Driver/ugui_SSD1963.c ****     if((x2 < 0) ||(x2 >= DISPLAY_WIDTH) || (y2 < 0) || (y2 >= DISPLAY_HEIGHT)) return UG_RESULT_FAI
 932              		.loc 1 209 0
 933 003c 4FF0FF30 		mov	r0, #-1
 934              	.LVL116:
 935 0040 10E0     		b	.L27
 936              	.LVL117:
 937              	.L30:
 938 0042 4FF0FF30 		mov	r0, #-1
ARM GAS  C:\Users\afne7\AppData\Local\Temp\ccufBIIM.s 			page 22


 939              	.LVL118:
 940 0046 0DE0     		b	.L27
 941              	.LVL119:
 942              	.L31:
 943 0048 4FF0FF30 		mov	r0, #-1
 944              	.LVL120:
 945 004c 0AE0     		b	.L27
 946              	.LVL121:
 947              	.L32:
 210:uGUI_Driver/ugui_SSD1963.c ****     
 948              		.loc 1 210 0
 949 004e 4FF0FF30 		mov	r0, #-1
 950              	.LVL122:
 951 0052 07E0     		b	.L27
 952              	.LVL123:
 953              	.L33:
 954 0054 4FF0FF30 		mov	r0, #-1
 955              	.LVL124:
 956 0058 04E0     		b	.L27
 957              	.LVL125:
 958              	.L34:
 959 005a 4FF0FF30 		mov	r0, #-1
 960              	.LVL126:
 961 005e 01E0     		b	.L27
 962              	.LVL127:
 963              	.L35:
 218:uGUI_Driver/ugui_SSD1963.c ****     }
 219:uGUI_Driver/ugui_SSD1963.c ****     
 220:uGUI_Driver/ugui_SSD1963.c ****     return UG_RESULT_FAIL;
 964              		.loc 1 220 0
 965 0060 4FF0FF30 		mov	r0, #-1
 966              	.LVL128:
 967              	.L27:
 221:uGUI_Driver/ugui_SSD1963.c **** }
 968              		.loc 1 221 0
 969 0064 02B0     		add	sp, sp, #8
 970              		.cfi_def_cfa_offset 8
 971              		@ sp needed
 972 0066 10BD     		pop	{r4, pc}
 973              		.cfi_endproc
 974              	.LFE71:
 975              		.size	HW_DrawLine, .-HW_DrawLine
 976              		.section	.text.HW_DrawImage,"ax",%progbits
 977              		.align	2
 978              		.global	HW_DrawImage
 979              		.thumb
 980              		.thumb_func
 981              		.type	HW_DrawImage, %function
 982              	HW_DrawImage:
 983              	.LFB72:
 222:uGUI_Driver/ugui_SSD1963.c **** 
 223:uGUI_Driver/ugui_SSD1963.c **** UG_RESULT HW_DrawImage(UG_S16 x1, UG_S16 y1, UG_S16 x2, UG_S16 y2, uint8_t *image, uint16_t pSize)
 224:uGUI_Driver/ugui_SSD1963.c **** {
 984              		.loc 1 224 0
 985              		.cfi_startproc
 986              		@ args = 8, pretend = 0, frame = 0
 987              		@ frame_needed = 0, uses_anonymous_args = 0
ARM GAS  C:\Users\afne7\AppData\Local\Temp\ccufBIIM.s 			page 23


 988              	.LVL129:
 989 0000 38B5     		push	{r3, r4, r5, lr}
 990              		.cfi_def_cfa_offset 16
 991              		.cfi_offset 3, -16
 992              		.cfi_offset 4, -12
 993              		.cfi_offset 5, -8
 994              		.cfi_offset 14, -4
 995 0002 BDF81440 		ldrh	r4, [sp, #20]
 225:uGUI_Driver/ugui_SSD1963.c ****         
 226:uGUI_Driver/ugui_SSD1963.c ****     if((x1 < 0) ||(x1 >= DISPLAY_WIDTH) || (y1 < 0) || (y1 >= DISPLAY_HEIGHT)) return UG_RESULT_FAI
 996              		.loc 1 226 0
 997 0006 85B2     		uxth	r5, r0
 998 0008 B5F5487F 		cmp	r5, #800
 999 000c 1FD2     		bcs	.L39
 1000              		.loc 1 226 0 is_stmt 0 discriminator 2
 1001 000e 0029     		cmp	r1, #0
 1002 0010 20DB     		blt	.L40
 1003              		.loc 1 226 0 discriminator 4
 1004 0012 B1F5F07F 		cmp	r1, #480
 1005 0016 20DA     		bge	.L41
 227:uGUI_Driver/ugui_SSD1963.c ****     if((x2 < 0) ||(x2 >= DISPLAY_WIDTH) || (y2 < 0) || (y2 >= DISPLAY_HEIGHT)) return UG_RESULT_FAI
 1006              		.loc 1 227 0 is_stmt 1
 1007 0018 95B2     		uxth	r5, r2
 1008 001a B5F5487F 		cmp	r5, #800
 1009 001e 1FD2     		bcs	.L42
 1010              		.loc 1 227 0 is_stmt 0 discriminator 2
 1011 0020 002B     		cmp	r3, #0
 1012 0022 20DB     		blt	.L43
 1013              		.loc 1 227 0 discriminator 4
 1014 0024 B3F5F07F 		cmp	r3, #480
 1015 0028 20DA     		bge	.L44
 1016 002a 1546     		mov	r5, r2
 1017 002c 0A46     		mov	r2, r1
 1018              	.LVL130:
 228:uGUI_Driver/ugui_SSD1963.c **** 
 229:uGUI_Driver/ugui_SSD1963.c ****     Display_WindowSet(x1,x2,y1,y2);
 1019              		.loc 1 229 0 is_stmt 1
 1020 002e 2946     		mov	r1, r5
 1021              	.LVL131:
 1022 0030 FFF7FEFF 		bl	Display_WindowSet
 1023              	.LVL132:
 1024              	.LBB240:
 1025              	.LBB241:
  37:uGUI_Driver/ugui_SSD1963.c **** }
 1026              		.loc 1 37 0
 1027 0034 2C21     		movs	r1, #44
 1028 0036 0020     		movs	r0, #0
 1029 0038 FFF7FEFF 		bl	GraphicLCDIntf_Write8
 1030              	.LVL133:
 1031              	.LBE241:
 1032              	.LBE240:
 230:uGUI_Driver/ugui_SSD1963.c **** 
 231:uGUI_Driver/ugui_SSD1963.c ****     Display_WriteCommand(0x2c);            
 232:uGUI_Driver/ugui_SSD1963.c ****     Display_WriteMultiData(image, pSize*3);
 1033              		.loc 1 232 0
 1034 003c 04EB4402 		add	r2, r4, r4, lsl #1
 1035              	.LVL134:
ARM GAS  C:\Users\afne7\AppData\Local\Temp\ccufBIIM.s 			page 24


 1036              	.LBB242:
 1037              	.LBB243:
  47:uGUI_Driver/ugui_SSD1963.c **** }
 1038              		.loc 1 47 0
 1039 0040 92B2     		uxth	r2, r2
 1040 0042 0499     		ldr	r1, [sp, #16]
 1041 0044 0120     		movs	r0, #1
 1042 0046 FFF7FEFF 		bl	GraphicLCDIntf_WriteM8
 1043              	.LVL135:
 1044              	.LBE243:
 1045              	.LBE242:
 233:uGUI_Driver/ugui_SSD1963.c ****     
 234:uGUI_Driver/ugui_SSD1963.c ****     return UG_RESULT_OK;
 1046              		.loc 1 234 0
 1047 004a 0020     		movs	r0, #0
 1048 004c 38BD     		pop	{r3, r4, r5, pc}
 1049              	.LVL136:
 1050              	.L39:
 226:uGUI_Driver/ugui_SSD1963.c ****     if((x2 < 0) ||(x2 >= DISPLAY_WIDTH) || (y2 < 0) || (y2 >= DISPLAY_HEIGHT)) return UG_RESULT_FAI
 1051              		.loc 1 226 0
 1052 004e 4FF0FF30 		mov	r0, #-1
 1053              	.LVL137:
 1054 0052 38BD     		pop	{r3, r4, r5, pc}
 1055              	.LVL138:
 1056              	.L40:
 1057 0054 4FF0FF30 		mov	r0, #-1
 1058              	.LVL139:
 1059 0058 38BD     		pop	{r3, r4, r5, pc}
 1060              	.LVL140:
 1061              	.L41:
 1062 005a 4FF0FF30 		mov	r0, #-1
 1063              	.LVL141:
 1064 005e 38BD     		pop	{r3, r4, r5, pc}
 1065              	.LVL142:
 1066              	.L42:
 227:uGUI_Driver/ugui_SSD1963.c **** 
 1067              		.loc 1 227 0
 1068 0060 4FF0FF30 		mov	r0, #-1
 1069              	.LVL143:
 1070 0064 38BD     		pop	{r3, r4, r5, pc}
 1071              	.LVL144:
 1072              	.L43:
 1073 0066 4FF0FF30 		mov	r0, #-1
 1074              	.LVL145:
 1075 006a 38BD     		pop	{r3, r4, r5, pc}
 1076              	.LVL146:
 1077              	.L44:
 1078 006c 4FF0FF30 		mov	r0, #-1
 1079              	.LVL147:
 235:uGUI_Driver/ugui_SSD1963.c **** }
 1080              		.loc 1 235 0
 1081 0070 38BD     		pop	{r3, r4, r5, pc}
 1082              		.cfi_endproc
 1083              	.LFE72:
 1084              		.size	HW_DrawImage, .-HW_DrawImage
 1085              		.comm	gui1963,120,4
 1086 0072 00BF     		.text
ARM GAS  C:\Users\afne7\AppData\Local\Temp\ccufBIIM.s 			page 25


 1087              	.Letext0:
 1088              		.file 2 "c:\\program files (x86)\\cypress\\psoc creator\\4.2\\psoc creator\\import\\gnu\\arm\\5.4.
 1089              		.file 3 "c:\\program files (x86)\\cypress\\psoc creator\\4.2\\psoc creator\\import\\gnu\\arm\\5.4.
 1090              		.file 4 "Generated_Source\\PSoC5/cytypes.h"
 1091              		.file 5 ".\\uGUI_Library/ugui_config.h"
 1092              		.file 6 ".\\uGUI_Library/ugui.h"
 1093              		.file 7 "Generated_Source\\PSoC5/core_cm3.h"
 1094              		.file 8 "uGUI_Driver\\ugui_SSD1963.h"
 1095              		.file 9 "Generated_Source\\PSoC5/GraphicLCDIntf.h"
 1096              		.file 10 "Generated_Source\\PSoC5/CyLib.h"
 1097              		.file 11 "Generated_Source\\PSoC5/D_RST.h"