ARM GAS  C:\Users\afne7\AppData\Local\Temp\ccBM2NZE.s 			page 1


   1              		.syntax unified
   2              		.cpu cortex-m3
   3              		.fpu softvfp
   4              		.eabi_attribute 20, 1
   5              		.eabi_attribute 21, 1
   6              		.eabi_attribute 23, 3
   7              		.eabi_attribute 24, 1
   8              		.eabi_attribute 25, 1
   9              		.eabi_attribute 26, 1
  10              		.eabi_attribute 30, 1
  11              		.eabi_attribute 34, 1
  12              		.eabi_attribute 18, 4
  13              		.thumb
  14              		.syntax unified
  15              		.file	"XPT2046.c"
  16              		.text
  17              	.Ltext0:
  18              		.cfi_sections	.debug_frame
  19              		.section	.text.XPT2046_ReadPos,"ax",%progbits
  20              		.align	2
  21              		.global	XPT2046_ReadPos
  22              		.thumb
  23              		.thumb_func
  24              		.type	XPT2046_ReadPos, %function
  25              	XPT2046_ReadPos:
  26              	.LFB65:
  27              		.file 1 "XPT2046.c"
   1:XPT2046.c     **** /*******************************************************************************
   2:XPT2046.c     **** * File Name: XPT2046.c
   3:XPT2046.c     **** *
   4:XPT2046.c     **** * Description:
   5:XPT2046.c     **** *  This is a driver for the Touch Screen Controller  XPT2046 
   6:XPT2046.c     **** *
   7:XPT2046.c     **** *  Data send and get by SPI
   8:XPT2046.c     **** *  Read Pos Coordinates X & Y with Basic Calibration
   9:XPT2046.c     **** *  Read Z Coordinate in Data Raw for Touch Pressure
  10:XPT2046.c     **** ********************************************************************************
  11:XPT2046.c     **** * Copyright (c) 2018 Andres F. Navas
  12:XPT2046.c     **** *******************************************************************************/
  13:XPT2046.c     **** 
  14:XPT2046.c     **** #include <project.h>
  15:XPT2046.c     **** #include <stdlib.h>
  16:XPT2046.c     **** #include "XPT2046.h"
  17:XPT2046.c     **** #include "ugui_SSD1963.h"
  18:XPT2046.c     **** 
  19:XPT2046.c     **** #define DelayCycles         10      // About 400ns period for 63MHz BUS Clock
  20:XPT2046.c     **** #define XPT2046_MAX_ADC     0x0fff  // Max ADC Value of 12bits
  21:XPT2046.c     **** #define X_Min               120     // Min and Max coordinates in raw values for calibration
  22:XPT2046.c     **** #define X_Max               4000
  23:XPT2046.c     **** #define Y_Min               200
  24:XPT2046.c     **** #define Y_Max               3712
  25:XPT2046.c     **** 
  26:XPT2046.c     **** //**********************************************************
  27:XPT2046.c     **** //******** Send data to XPT2046   Touch Controller *********
  28:XPT2046.c     **** //********            SPI Transaction              *********
  29:XPT2046.c     **** //**********************************************************
  30:XPT2046.c     **** inline void Write_2046(unsigned char Num)          
ARM GAS  C:\Users\afne7\AppData\Local\Temp\ccBM2NZE.s 			page 2


  31:XPT2046.c     **** {
  32:XPT2046.c     ****     unsigned char count = 0;
  33:XPT2046.c     ****     T_CLK_Write(0);
  34:XPT2046.c     ****     for(count = 0; count < 8; count++)  // Command control 8 bits
  35:XPT2046.c     ****     {
  36:XPT2046.c     ****         if(Num & 0x80) T_DIN_Write(1);   // Write command from MSB  to LSB        
  37:XPT2046.c     ****         else T_DIN_Write(0);
  38:XPT2046.c     ****         T_CLK_Write(0);                 // Rising Edge to write
  39:XPT2046.c     ****         CyDelayCycles(DelayCycles);
  40:XPT2046.c     ****         T_CLK_Write(1);
  41:XPT2046.c     ****         CyDelayCycles(DelayCycles);
  42:XPT2046.c     ****         Num <<= 1;                      // Shift the register
  43:XPT2046.c     ****     }
  44:XPT2046.c     **** }
  45:XPT2046.c     **** 
  46:XPT2046.c     **** //**********************************************************
  47:XPT2046.c     **** //******** Get data from XPT2046  Touch Controller *********
  48:XPT2046.c     **** //********            SPI Transaction              *********
  49:XPT2046.c     **** //**********************************************************
  50:XPT2046.c     **** inline uint16 Read_2046()             
  51:XPT2046.c     **** {
  52:XPT2046.c     **** 	uint8 count = 0;
  53:XPT2046.c     **** 	uint16 Num = 0;
  54:XPT2046.c     **** 	for(count = 0; count < 12; count++)     // ADC Data read 12 bits
  55:XPT2046.c     **** 	{
  56:XPT2046.c     **** 		Num <<= 1;		                    // Shift the register
  57:XPT2046.c     **** 		T_CLK_Write(1);                     // Falling Edge to read
  58:XPT2046.c     ****         CyDelayCycles(DelayCycles);           
  59:XPT2046.c     **** 		T_CLK_Write(0);
  60:XPT2046.c     ****         CyDelayCycles(DelayCycles);
  61:XPT2046.c     **** 		Num |= T_DO_Read();	            // Read the data from MSB to LSB
  62:XPT2046.c     **** 	}
  63:XPT2046.c     **** 
  64:XPT2046.c     **** return(Num);
  65:XPT2046.c     **** }	
  66:XPT2046.c     **** 
  67:XPT2046.c     **** //**********************************************************
  68:XPT2046.c     **** //******    Reading the position of the coordinate    ******
  69:XPT2046.c     **** //******            Data RAW / 12Bits ADC             ******
  70:XPT2046.c     **** //**********************************************************
  71:XPT2046.c     **** uint16 XPT2046_ReadPos(uint16 coord)
  72:XPT2046.c     **** {
  28              		.loc 1 72 0
  29              		.cfi_startproc
  30              		@ args = 0, pretend = 0, frame = 0
  31              		@ frame_needed = 0, uses_anonymous_args = 0
  32              	.LVL0:
  33 0000 38B5     		push	{r3, r4, r5, lr}
  34              		.cfi_def_cfa_offset 16
  35              		.cfi_offset 3, -16
  36              		.cfi_offset 4, -12
  37              		.cfi_offset 5, -8
  38              		.cfi_offset 14, -4
  39 0002 0446     		mov	r4, r0
  73:XPT2046.c     ****     uint16 pos;
  74:XPT2046.c     ****     T_CS_Write(0);
  40              		.loc 1 74 0
ARM GAS  C:\Users\afne7\AppData\Local\Temp\ccBM2NZE.s 			page 3


  41 0004 0020     		movs	r0, #0
  42              	.LVL1:
  43 0006 FFF7FEFF 		bl	T_CS_Write
  44              	.LVL2:
  75:XPT2046.c     ****     Write_2046(coord);                    // Send Command     
  45              		.loc 1 75 0
  46 000a E4B2     		uxtb	r4, r4
  47              	.LVL3:
  48              	.LBB6:
  49              	.LBB7:
  33:XPT2046.c     ****     for(count = 0; count < 8; count++)  // Command control 8 bits
  50              		.loc 1 33 0
  51 000c 0020     		movs	r0, #0
  52 000e FFF7FEFF 		bl	T_CLK_Write
  53              	.LVL4:
  34:XPT2046.c     ****     {
  54              		.loc 1 34 0
  55 0012 0025     		movs	r5, #0
  56 0014 19E0     		b	.L2
  57              	.LVL5:
  58              	.L5:
  36:XPT2046.c     ****         else T_DIN_Write(0);
  59              		.loc 1 36 0
  60 0016 14F0800F 		tst	r4, #128
  61 001a 03D0     		beq	.L3
  62 001c 0120     		movs	r0, #1
  63 001e FFF7FEFF 		bl	T_DIN_Write
  64              	.LVL6:
  65 0022 02E0     		b	.L4
  66              	.L3:
  37:XPT2046.c     ****         T_CLK_Write(0);                 // Rising Edge to write
  67              		.loc 1 37 0
  68 0024 0020     		movs	r0, #0
  69 0026 FFF7FEFF 		bl	T_DIN_Write
  70              	.LVL7:
  71              	.L4:
  38:XPT2046.c     ****         CyDelayCycles(DelayCycles);
  72              		.loc 1 38 0
  73 002a 0020     		movs	r0, #0
  74 002c FFF7FEFF 		bl	T_CLK_Write
  75              	.LVL8:
  39:XPT2046.c     ****         T_CLK_Write(1);
  76              		.loc 1 39 0
  77 0030 0A20     		movs	r0, #10
  78 0032 FFF7FEFF 		bl	CyDelayCycles
  79              	.LVL9:
  40:XPT2046.c     ****         CyDelayCycles(DelayCycles);
  80              		.loc 1 40 0
  81 0036 0120     		movs	r0, #1
  82 0038 FFF7FEFF 		bl	T_CLK_Write
  83              	.LVL10:
  41:XPT2046.c     ****         Num <<= 1;                      // Shift the register
  84              		.loc 1 41 0
  85 003c 0A20     		movs	r0, #10
  86 003e FFF7FEFF 		bl	CyDelayCycles
  87              	.LVL11:
  42:XPT2046.c     ****     }
ARM GAS  C:\Users\afne7\AppData\Local\Temp\ccBM2NZE.s 			page 4


  88              		.loc 1 42 0
  89 0042 6400     		lsls	r4, r4, #1
  90              	.LVL12:
  91 0044 E4B2     		uxtb	r4, r4
  92              	.LVL13:
  34:XPT2046.c     ****     {
  93              		.loc 1 34 0
  94 0046 0135     		adds	r5, r5, #1
  95              	.LVL14:
  96 0048 EDB2     		uxtb	r5, r5
  97              	.LVL15:
  98              	.L2:
  99 004a 072D     		cmp	r5, #7
 100 004c E3D9     		bls	.L5
 101              	.LVL16:
 102              	.LBE7:
 103              	.LBE6:
  76:XPT2046.c     ****     T_CLK_Write(1);
 104              		.loc 1 76 0
 105 004e 0120     		movs	r0, #1
 106 0050 FFF7FEFF 		bl	T_CLK_Write
 107              	.LVL17:
  77:XPT2046.c     ****     CyDelayCycles(DelayCycles);           //Falling Edge to continue
 108              		.loc 1 77 0
 109 0054 0A20     		movs	r0, #10
 110 0056 FFF7FEFF 		bl	CyDelayCycles
 111              	.LVL18:
  78:XPT2046.c     ****     T_CLK_Write(0);
 112              		.loc 1 78 0
 113 005a 0020     		movs	r0, #0
 114 005c FFF7FEFF 		bl	T_CLK_Write
 115              	.LVL19:
  79:XPT2046.c     ****     CyDelayCycles(DelayCycles);
 116              		.loc 1 79 0
 117 0060 0A20     		movs	r0, #10
 118 0062 FFF7FEFF 		bl	CyDelayCycles
 119              	.LVL20:
 120              	.LBB8:
 121              	.LBB9:
  53:XPT2046.c     **** 	for(count = 0; count < 12; count++)     // ADC Data read 12 bits
 122              		.loc 1 53 0
 123 0066 0024     		movs	r4, #0
  54:XPT2046.c     **** 	{
 124              		.loc 1 54 0
 125 0068 2546     		mov	r5, r4
 126 006a 13E0     		b	.L6
 127              	.LVL21:
 128              	.L7:
  56:XPT2046.c     **** 		T_CLK_Write(1);                     // Falling Edge to read
 129              		.loc 1 56 0
 130 006c 6400     		lsls	r4, r4, #1
 131              	.LVL22:
 132 006e A4B2     		uxth	r4, r4
 133              	.LVL23:
  57:XPT2046.c     ****         CyDelayCycles(DelayCycles);           
 134              		.loc 1 57 0
 135 0070 0120     		movs	r0, #1
ARM GAS  C:\Users\afne7\AppData\Local\Temp\ccBM2NZE.s 			page 5


 136 0072 FFF7FEFF 		bl	T_CLK_Write
 137              	.LVL24:
  58:XPT2046.c     **** 		T_CLK_Write(0);
 138              		.loc 1 58 0
 139 0076 0A20     		movs	r0, #10
 140 0078 FFF7FEFF 		bl	CyDelayCycles
 141              	.LVL25:
  59:XPT2046.c     ****         CyDelayCycles(DelayCycles);
 142              		.loc 1 59 0
 143 007c 0020     		movs	r0, #0
 144 007e FFF7FEFF 		bl	T_CLK_Write
 145              	.LVL26:
  60:XPT2046.c     **** 		Num |= T_DO_Read();	            // Read the data from MSB to LSB
 146              		.loc 1 60 0
 147 0082 0A20     		movs	r0, #10
 148 0084 FFF7FEFF 		bl	CyDelayCycles
 149              	.LVL27:
  61:XPT2046.c     **** 	}
 150              		.loc 1 61 0
 151 0088 FFF7FEFF 		bl	T_DO_Read
 152              	.LVL28:
 153 008c 2043     		orrs	r0, r0, r4
 154 008e 84B2     		uxth	r4, r0
 155              	.LVL29:
  54:XPT2046.c     **** 	{
 156              		.loc 1 54 0
 157 0090 0135     		adds	r5, r5, #1
 158              	.LVL30:
 159 0092 EDB2     		uxtb	r5, r5
 160              	.LVL31:
 161              	.L6:
 162 0094 0B2D     		cmp	r5, #11
 163 0096 E9D9     		bls	.L7
 164              	.LVL32:
 165              	.LBE9:
 166              	.LBE8:
  80:XPT2046.c     ****     pos = Read_2046();                    // Read ADC data
  81:XPT2046.c     ****     T_CS_Write(1);
 167              		.loc 1 81 0
 168 0098 0120     		movs	r0, #1
 169 009a FFF7FEFF 		bl	T_CS_Write
 170              	.LVL33:
  82:XPT2046.c     ****     return pos;
  83:XPT2046.c     **** }
 171              		.loc 1 83 0
 172 009e 2046     		mov	r0, r4
 173 00a0 38BD     		pop	{r3, r4, r5, pc}
 174              		.cfi_endproc
 175              	.LFE65:
 176              		.size	XPT2046_ReadPos, .-XPT2046_ReadPos
 177 00a2 00BF     		.section	.text.XPT2046_Start,"ax",%progbits
 178              		.align	2
 179              		.global	XPT2046_Start
 180              		.thumb
 181              		.thumb_func
 182              		.type	XPT2046_Start, %function
 183              	XPT2046_Start:
ARM GAS  C:\Users\afne7\AppData\Local\Temp\ccBM2NZE.s 			page 6


 184              	.LFB66:
  84:XPT2046.c     **** 
  85:XPT2046.c     **** //**********************************************************
  86:XPT2046.c     **** //*****************    Start controller   ******************
  87:XPT2046.c     **** //*****************  Enable the Touch IRQ ******************
  88:XPT2046.c     **** //**********************************************************
  89:XPT2046.c     **** void XPT2046_Start(void)
  90:XPT2046.c     **** {
 185              		.loc 1 90 0
 186              		.cfi_startproc
 187              		@ args = 0, pretend = 0, frame = 0
 188              		@ frame_needed = 0, uses_anonymous_args = 0
 189 0000 08B5     		push	{r3, lr}
 190              		.cfi_def_cfa_offset 8
 191              		.cfi_offset 3, -8
 192              		.cfi_offset 14, -4
  91:XPT2046.c     ****     XPT2046_ReadPos(0x80);
 193              		.loc 1 91 0
 194 0002 8020     		movs	r0, #128
 195 0004 FFF7FEFF 		bl	XPT2046_ReadPos
 196              	.LVL34:
  92:XPT2046.c     ****     CyDelay(5);
 197              		.loc 1 92 0
 198 0008 0520     		movs	r0, #5
 199 000a FFF7FEFF 		bl	CyDelay
 200              	.LVL35:
 201 000e 08BD     		pop	{r3, pc}
 202              		.cfi_endproc
 203              	.LFE66:
 204              		.size	XPT2046_Start, .-XPT2046_Start
 205              		.section	.text.XPT2046_ReadXY,"ax",%progbits
 206              		.align	2
 207              		.global	XPT2046_ReadXY
 208              		.thumb
 209              		.thumb_func
 210              		.type	XPT2046_ReadXY, %function
 211              	XPT2046_ReadXY:
 212              	.LFB67:
  93:XPT2046.c     **** }
  94:XPT2046.c     **** 
  95:XPT2046.c     **** //**********************************************************
  96:XPT2046.c     **** //*****************   Obtain X and Y Pos  ******************
  97:XPT2046.c     **** //*****************   Basic  Calibration  ******************
  98:XPT2046.c     **** //**********************************************************
  99:XPT2046.c     **** uint8 XPT2046_ReadXY(uint16 *X,  uint16 *Y)  // Return 1 if data is valid
 100:XPT2046.c     **** {
 213              		.loc 1 100 0
 214              		.cfi_startproc
 215              		@ args = 0, pretend = 0, frame = 0
 216              		@ frame_needed = 0, uses_anonymous_args = 0
 217              	.LVL36:
 218 0000 2DE9F843 		push	{r3, r4, r5, r6, r7, r8, r9, lr}
 219              		.cfi_def_cfa_offset 32
 220              		.cfi_offset 3, -32
 221              		.cfi_offset 4, -28
 222              		.cfi_offset 5, -24
 223              		.cfi_offset 6, -20
ARM GAS  C:\Users\afne7\AppData\Local\Temp\ccBM2NZE.s 			page 7


 224              		.cfi_offset 7, -16
 225              		.cfi_offset 8, -12
 226              		.cfi_offset 9, -8
 227              		.cfi_offset 14, -4
 228 0004 8146     		mov	r9, r0
 229 0006 8846     		mov	r8, r1
 230              	.LVL37:
 101:XPT2046.c     ****     uint16 x0, y0, x1, y1, xav, yav, px, py;
 102:XPT2046.c     ****     uint16 timeout = 0;
 231              		.loc 1 102 0
 232 0008 0025     		movs	r5, #0
 233              	.LVL38:
 234              	.L13:
 103:XPT2046.c     ****     
 104:XPT2046.c     ****     do{         
 105:XPT2046.c     ****         XPT2046_ReadPos(0x90);                         
 235              		.loc 1 105 0 discriminator 5
 236 000a 9020     		movs	r0, #144
 237 000c FFF7FEFF 		bl	XPT2046_ReadPos
 238              	.LVL39:
 106:XPT2046.c     ****         y0 = XPT2046_ReadPos(0x90);     // read coordinate Y
 239              		.loc 1 106 0 discriminator 5
 240 0010 9020     		movs	r0, #144
 241 0012 FFF7FEFF 		bl	XPT2046_ReadPos
 242              	.LVL40:
 243 0016 0746     		mov	r7, r0
 244              	.LVL41:
 107:XPT2046.c     ****         y1 = XPT2046_ReadPos(0x90);     // again...
 245              		.loc 1 107 0 discriminator 5
 246 0018 9020     		movs	r0, #144
 247 001a FFF7FEFF 		bl	XPT2046_ReadPos
 248              	.LVL42:
 249 001e 0646     		mov	r6, r0
 250              	.LVL43:
 108:XPT2046.c     ****                               
 109:XPT2046.c     ****         XPT2046_ReadPos(0xd0);
 251              		.loc 1 109 0 discriminator 5
 252 0020 D020     		movs	r0, #208
 253 0022 FFF7FEFF 		bl	XPT2046_ReadPos
 254              	.LVL44:
 110:XPT2046.c     ****         x0 = XPT2046_ReadPos(0xd0);     // read coordinate X
 255              		.loc 1 110 0 discriminator 5
 256 0026 D020     		movs	r0, #208
 257 0028 FFF7FEFF 		bl	XPT2046_ReadPos
 258              	.LVL45:
 259 002c 0446     		mov	r4, r0
 260              	.LVL46:
 111:XPT2046.c     ****         x1 = XPT2046_ReadPos(0xd0);	    // again...                     
 261              		.loc 1 111 0 discriminator 5
 262 002e D020     		movs	r0, #208
 263 0030 FFF7FEFF 		bl	XPT2046_ReadPos
 264              	.LVL47:
 112:XPT2046.c     ****         
 113:XPT2046.c     ****         timeout++;                      // Incr. Time Out
 265              		.loc 1 113 0 discriminator 5
 266 0034 0135     		adds	r5, r5, #1
 267              	.LVL48:
ARM GAS  C:\Users\afne7\AppData\Local\Temp\ccBM2NZE.s 			page 8


 268 0036 ADB2     		uxth	r5, r5
 269              	.LVL49:
 114:XPT2046.c     ****    }while(((abs(x0 - x1) > 50) && (abs(y0 - y1) > 50)) || timeout >= 255);     // Cycle if the erro
 270              		.loc 1 114 0 discriminator 5
 271 0038 2146     		mov	r1, r4
 272 003a 0246     		mov	r2, r0
 273 003c 241A     		subs	r4, r4, r0
 274              	.LVL50:
 275 003e 002C     		cmp	r4, #0
 276 0040 B8BF     		it	lt
 277 0042 6442     		rsblt	r4, r4, #0
 278 0044 322C     		cmp	r4, #50
 279 0046 05DD     		ble	.L12
 280              		.loc 1 114 0 is_stmt 0 discriminator 1
 281 0048 BB1B     		subs	r3, r7, r6
 282 004a 002B     		cmp	r3, #0
 283 004c B8BF     		it	lt
 284 004e 5B42     		rsblt	r3, r3, #0
 285 0050 322B     		cmp	r3, #50
 286 0052 DADC     		bgt	.L13
 287              	.L12:
 288              		.loc 1 114 0 discriminator 4
 289 0054 FE2D     		cmp	r5, #254
 290 0056 D8D8     		bhi	.L13
 115:XPT2046.c     **** 
 116:XPT2046.c     ****     if(timeout < 255)       // Cycle ends with good data
 291              		.loc 1 116 0 is_stmt 1
 292 0058 36D8     		bhi	.L17
 117:XPT2046.c     ****     { 
 118:XPT2046.c     ****         // Update the current coordinate values
 119:XPT2046.c     ****         xav  = (x0 + x1)/2;                                     // Data raw Average for X and Y
 293              		.loc 1 119 0
 294 005a 0A44     		add	r2, r2, r1
 295 005c 02EBD272 		add	r2, r2, r2, lsr #31
 296              	.LVL51:
 120:XPT2046.c     ****         yav  = XPT2046_MAX_ADC - ((y0 + y1)/2);                 // Normalization of touchpad to ach
 297              		.loc 1 120 0
 298 0060 3E44     		add	r6, r6, r7
 299              	.LVL52:
 300 0062 06EBD676 		add	r6, r6, r6, lsr #31
 301 0066 40F6FF73 		movw	r3, #4095
 302 006a A3EB6606 		sub	r6, r3, r6, asr #1
 303 006e B6B2     		uxth	r6, r6
 304              	.LVL53:
 121:XPT2046.c     ****         px = ((xav - X_Min) * DISPLAY_WIDTH) / (X_Max - X_Min); // Calibration for LCD Panel Size; 
 305              		.loc 1 121 0
 306 0070 C2F34F03 		ubfx	r3, r2, #1, #16
 307 0074 783B     		subs	r3, r3, #120
 308 0076 4FF44872 		mov	r2, #800
 309              	.LVL54:
 310 007a 02FB03F3 		mul	r3, r2, r3
 311 007e 144A     		ldr	r2, .L21
 312 0080 82FB0312 		smull	r1, r2, r2, r3
 313              	.LVL55:
 314 0084 1A44     		add	r2, r2, r3
 315 0086 DB17     		asrs	r3, r3, #31
 316 0088 C3EBE223 		rsb	r3, r3, r2, asr #11
ARM GAS  C:\Users\afne7\AppData\Local\Temp\ccBM2NZE.s 			page 9


 317 008c 9BB2     		uxth	r3, r3
 318              	.LVL56:
 122:XPT2046.c     ****         if(px <= 0) px = 0;
 123:XPT2046.c     ****         if(px >= DISPLAY_WIDTH) px = DISPLAY_WIDTH;
 319              		.loc 1 123 0
 320 008e B3F5487F 		cmp	r3, #800
 321 0092 01D3     		bcc	.L15
 322 0094 4FF44873 		mov	r3, #800
 323              	.LVL57:
 324              	.L15:
 124:XPT2046.c     ****         py = ((yav - Y_Min) * DISPLAY_HEIGHT) / (Y_Max - Y_Min);
 325              		.loc 1 124 0
 326 0098 A6F1C802 		sub	r2, r6, #200
 327 009c C2EB0212 		rsb	r2, r2, r2, lsl #4
 328 00a0 5101     		lsls	r1, r2, #5
 329 00a2 0C4A     		ldr	r2, .L21+4
 330 00a4 82FB0102 		smull	r0, r2, r2, r1
 331              	.LVL58:
 332 00a8 C917     		asrs	r1, r1, #31
 333 00aa C1EB2222 		rsb	r2, r1, r2, asr #8
 334 00ae 92B2     		uxth	r2, r2
 335              	.LVL59:
 125:XPT2046.c     ****         if(py <= 0) py = 0;
 126:XPT2046.c     ****         if(py >= DISPLAY_HEIGHT) py = DISPLAY_HEIGHT;
 336              		.loc 1 126 0
 337 00b0 B2F5F07F 		cmp	r2, #480
 338 00b4 01D3     		bcc	.L16
 339 00b6 4FF4F072 		mov	r2, #480
 340              	.LVL60:
 341              	.L16:
 127:XPT2046.c     ****         *X = px;
 342              		.loc 1 127 0
 343 00ba A9F80030 		strh	r3, [r9]	@ movhi
 128:XPT2046.c     ****         *Y = py;
 344              		.loc 1 128 0
 345 00be A8F80020 		strh	r2, [r8]	@ movhi
 129:XPT2046.c     ****         return(1);      // Data Valid
 346              		.loc 1 129 0
 347 00c2 0120     		movs	r0, #1
 348 00c4 BDE8F883 		pop	{r3, r4, r5, r6, r7, r8, r9, pc}
 349              	.LVL61:
 350              	.L17:
 130:XPT2046.c     ****     }
 131:XPT2046.c     ****     else
 132:XPT2046.c     ****     {
 133:XPT2046.c     ****         return(0);      // Data not valid
 351              		.loc 1 133 0
 352 00c8 0020     		movs	r0, #0
 353              	.LVL62:
 134:XPT2046.c     ****     }
 135:XPT2046.c     **** }
 354              		.loc 1 135 0
 355 00ca BDE8F883 		pop	{r3, r4, r5, r6, r7, r8, r9, pc}
 356              	.LVL63:
 357              	.L22:
 358 00ce 00BF     		.align	2
 359              	.L21:
ARM GAS  C:\Users\afne7\AppData\Local\Temp\ccBM2NZE.s 			page 10


 360 00d0 AD322087 		.word	-2027933011
 361 00d4 931CA912 		.word	313072787
 362              		.cfi_endproc
 363              	.LFE67:
 364              		.size	XPT2046_ReadXY, .-XPT2046_ReadXY
 365              		.section	.text.XPT2046_ReadZ,"ax",%progbits
 366              		.align	2
 367              		.global	XPT2046_ReadZ
 368              		.thumb
 369              		.thumb_func
 370              		.type	XPT2046_ReadZ, %function
 371              	XPT2046_ReadZ:
 372              	.LFB68:
 136:XPT2046.c     **** 
 137:XPT2046.c     **** //**********************************************************
 138:XPT2046.c     **** //**************    Obtain Z Coordinate    *****************
 139:XPT2046.c     **** //**************  Touch Pressure RAW Data  *****************
 140:XPT2046.c     **** //**********************************************************
 141:XPT2046.c     **** uint16 XPT2046_ReadZ(void)
 142:XPT2046.c     **** {
 373              		.loc 1 142 0
 374              		.cfi_startproc
 375              		@ args = 0, pretend = 0, frame = 0
 376              		@ frame_needed = 0, uses_anonymous_args = 0
 377 0000 10B5     		push	{r4, lr}
 378              		.cfi_def_cfa_offset 8
 379              		.cfi_offset 4, -8
 380              		.cfi_offset 14, -4
 143:XPT2046.c     ****     return(XPT2046_ReadPos(0xc0) - XPT2046_ReadPos(0xb0));      // Z Data Raw is inverse, so 4095 i
 381              		.loc 1 143 0
 382 0002 C020     		movs	r0, #192
 383 0004 FFF7FEFF 		bl	XPT2046_ReadPos
 384              	.LVL64:
 385 0008 0446     		mov	r4, r0
 386 000a B020     		movs	r0, #176
 387 000c FFF7FEFF 		bl	XPT2046_ReadPos
 388              	.LVL65:
 389 0010 201A     		subs	r0, r4, r0
 144:XPT2046.c     **** }
 390              		.loc 1 144 0
 391 0012 80B2     		uxth	r0, r0
 392 0014 10BD     		pop	{r4, pc}
 393              		.cfi_endproc
 394              	.LFE68:
 395              		.size	XPT2046_ReadZ, .-XPT2046_ReadZ
 396              		.comm	gui1963,120,4
 397              		.comm	PosY,2,2
 398              		.comm	PosX,2,2
 399 0016 00BF     		.text
 400              	.Letext0:
 401              		.file 2 "c:\\program files (x86)\\cypress\\psoc creator\\4.2\\psoc creator\\import\\gnu\\arm\\5.4.
 402              		.file 3 "c:\\program files (x86)\\cypress\\psoc creator\\4.2\\psoc creator\\import\\gnu\\arm\\5.4.
 403              		.file 4 "Generated_Source\\PSoC5/cytypes.h"
 404              		.file 5 ".\\uGUI_Library/ugui_config.h"
 405              		.file 6 ".\\uGUI_Library/ugui.h"
 406              		.file 7 "Generated_Source\\PSoC5/core_cm3.h"
 407              		.file 8 "XPT2046.h"
ARM GAS  C:\Users\afne7\AppData\Local\Temp\ccBM2NZE.s 			page 11


 408              		.file 9 ".\\uGUI_Driver/ugui_SSD1963.h"
 409              		.file 10 "Generated_Source\\PSoC5/T_CLK.h"
 410              		.file 11 "Generated_Source\\PSoC5/T_DIN.h"
 411              		.file 12 "Generated_Source\\PSoC5/CyLib.h"
 412              		.file 13 "Generated_Source\\PSoC5/T_DO.h"
 413              		.file 14 "Generated_Source\\PSoC5/T_CS.h"